LX51 LINKER/LOCATER V4.66.97.0                                                          10/14/2021  10:03:14  PAGE 1


LX51 LINKER/LOCATER V4.66.97.0, INVOKED BY:
C:\SILICONLABS\SIMPLICITYSTUDIO\V5\DEVELOPER\TOOLCHAINS\KEIL_8051\9.60\BIN\LX51.EXE ./src/InitDevice.OBJ, ./src/Interrup
>> ts.OBJ, ./src/LFMassage_main.OBJ, ./src/SILABS_STARTUP.OBJ, ./src/driver.OBJ TO LFMASSAGE.OMF.CRBUILD REMOVEUNUSED PR
>> INT (.\LFMassage.m51) PAGEWIDTH (120) PAGELENGTH (65) CLASSES (ECODE (C:0X0-C:0X1FFE), HCONST (C:0X0-C:0X1FFE), XDATA
>>  (X:0X0-X:0XFF), HDATA (X:0X0-X:0XFF))


CPU MODE:     8051 MODE
MEMORY MODEL: SMALL


INPUT MODULES INCLUDED:
  ./src/InitDevice.OBJ (INITDEVICE)
         COMMENT TYPE 0: C51 V9.60.0.0
  ./src/Interrupts.OBJ (INTERRUPTS)
         COMMENT TYPE 0: C51 V9.60.0.0
  ./src/LFMassage_main.OBJ (LFMASSAGE_MAIN)
         COMMENT TYPE 0: C51 V9.60.0.0
  ./src/SILABS_STARTUP.OBJ (?C_STARTUP)
         COMMENT TYPE 0: AX51 V3.15.3.0
  ./src/driver.OBJ (DRIVER)
         COMMENT TYPE 0: C51 V9.60.0.0
  C:\SILICONLABS\SIMPLICITYSTUDIO\V5\DEVELOPER\TOOLCHAINS\KEIL_8051\9.60\LIB\C51S.LIB (?C_INIT)
         COMMENT TYPE 1: A51 / ASM51 Assembler
  C:\SILICONLABS\SIMPLICITYSTUDIO\V5\DEVELOPER\TOOLCHAINS\KEIL_8051\9.60\LIB\C51S.LIB (?C?LMUL)
         COMMENT TYPE 1: A51 / ASM51 Assembler
  C:\SILICONLABS\SIMPLICITYSTUDIO\V5\DEVELOPER\TOOLCHAINS\KEIL_8051\9.60\LIB\C51S.LIB (?C?ULDIV)
         COMMENT TYPE 1: A51 / ASM51 Assembler
  C:\SILICONLABS\SIMPLICITYSTUDIO\V5\DEVELOPER\TOOLCHAINS\KEIL_8051\9.60\LIB\C51S.LIB (?C?ULCMP)
         COMMENT TYPE 1: A51 / ASM51 Assembler


ACTIVE MEMORY CLASSES OF MODULE:  LFMASSAGE.OMF.CRBUILD (INITDEVICE)

BASE        START       END         USED      MEMORY CLASS
==========================================================
C:000000H   C:000000H   C:001FFEH             ECODE
C:000000H   C:000000H   C:001FFEH             HCONST
X:000000H   X:000000H   X:0000FFH             XDATA
X:000000H   X:000000H   X:0000FFH             HDATA
C:000000H   C:000000H   C:00FFFFH   000758H   CODE
I:000000H   I:000000H   I:00007FH   000020H   DATA
I:000020H.0 I:000020H.0 I:00002FH.7 000001H.0 BIT
I:000000H   I:000000H   I:0000FFH   000001H   IDATA


MEMORY MAP OF MODULE:  LFMASSAGE.OMF.CRBUILD (INITDEVICE)


START     STOP      LENGTH    ALIGN  RELOC    MEMORY CLASS   SEGMENT NAME
=========================================================================

* * * * * * * * * * *   D A T A   M E M O R Y   * * * * * * * * * * * * *
000000H   000007H   000008H   ---    AT..     DATA           "REG BANK 0"
000008H   00000FH   000008H   BYTE   UNIT     DATA           _DATA_GROUP_
000010H   000015H   000006H   BYTE   UNIT     DATA           ?DT?INTERRUPTS
000016H   00001BH   000006H   BYTE   UNIT     DATA           ?DT?LFMASSAGE_MAIN
00001CH   00001FH   000004H   BYTE   UNIT     DATA           ?DT?DRIVER
000020H.0 000020H.3 000000H.4 BIT    UNIT     BIT            ?BI?DRIVER
000020H.4 000020H.7 000000H.4 BIT    UNIT     BIT            _BIT_GROUP_
000021H   000021H   000001H   BYTE   UNIT     IDATA          ?STACK

* * * * * * * * * * *   C O D E   M E M O R Y   * * * * * * * * * * * * *
LX51 LINKER/LOCATER V4.66.97.0                                                        10/14/2021  10:03:14  PAGE 2


000000H   000002H   000003H   ---    OFFS..   CODE           ?CO?SILABS_STARTUP?3
000003H   000005H   000003H   BYTE   OFFS..   CODE           ?INTERRUPTS?00003
000006H   000012H   00000DH   BYTE   UNIT     CODE           ?PR?PORTS_0_ENTER_DEFAULTMODE_FROM_RESET?INITDEVICE
000013H   000015H   000003H   BYTE   OFFS..   CODE           ?INTERRUPTS?00013
000016H   000025H   000010H   BYTE   UNIT     CODE           ?PR?TIMER16_2_ENTER_DEFAULTMODE_FROM_RESET?INITDEVICE
000026H   00002AH   000005H   BYTE   UNIT     CODE           ?PR?SETBTNPLUS?DRIVER
00002BH   00002DH   000003H   BYTE   OFFS..   CODE           ?INTERRUPTS?0002B
00002EH   000051H   000024H   BYTE   UNIT     CODE           ?PR?ENTER_DEFAULTMODE_FROM_RESET?INITDEVICE
000052H   000052H   000001H   BYTE   UNIT     CODE           ?PR?SILABS_STARTUP?LFMASSAGE_MAIN
000053H   000055H   000003H   BYTE   OFFS..   CODE           ?INTERRUPTS?00053
000056H   000062H   00000DH   BYTE   UNIT     CODE           ?PR?PORTS_1_ENTER_DEFAULTMODE_FROM_RESET?INITDEVICE
000063H   000065H   000003H   BYTE   OFFS..   CODE           ?INTERRUPTS?00063
000066H   000072H   00000DH   BYTE   UNIT     CODE           ?PR?ADC_0_ENTER_DEFAULTMODE_FROM_RESET?INITDEVICE
000073H   000075H   000003H   BYTE   OFFS..   CODE           ?INTERRUPTS?00073
000076H   0001EBH   000176H   BYTE   UNIT     CODE           ?PR?MAIN?LFMASSAGE_MAIN
0001ECH   000319H   00012EH   BYTE   UNIT     CODE           ?C?LIB_CODE
00031AH   0003D0H   0000B7H   BYTE   UNIT     CODE           ?PR?ADC0EOC_ISR?INTERRUPTS
0003D1H   00045FH   00008FH   BYTE   UNIT     CODE           ?C_C51STARTUP
000460H   0004E3H   000084H   BYTE   UNIT     CODE           ?PR?WDT_0_ENTER_DEFAULTMODE_FROM_RESET?INITDEVICE
0004E4H   000523H   000040H   BYTE   UNIT     CODE           ?PR?CMP0_ISR?INTERRUPTS
000524H   000561H   00003EH   BYTE   UNIT     CODE           ?PR?TIMER3_ISR?INTERRUPTS
000562H   00059EH   00003DH   BYTE   UNIT     CODE           ?PR?TIMER2_ISR?INTERRUPTS
00059FH   0005DBH   00003DH   BYTE   UNIT     CODE           ?PR?INT0_ISR?INTERRUPTS
0005DCH   000618H   00003DH   BYTE   UNIT     CODE           ?PR?INT1_ISR?INTERRUPTS
000619H   000642H   00002AH   BYTE   UNIT     CODE           ?PR?_TIMER0_DELAY?LFMASSAGE_MAIN
000643H   000663H   000021H   BYTE   UNIT     CODE           ?PR?_PULSENEG?DRIVER
000664H   000682H   00001FH   BYTE   UNIT     CODE           ?C_INITSEG
000683H   00069BH   000019H   BYTE   UNIT     CODE           ?PR?CMP_0_ENTER_DEFAULTMODE_FROM_RESET?INITDEVICE
00069CH   0006B2H   000017H   BYTE   UNIT     CODE           ?PR?INITIALIZE?LFMASSAGE_MAIN
0006B3H   0006C8H   000016H   BYTE   UNIT     CODE           ?PR?TIMER01_0_ENTER_DEFAULTMODE_FROM_RESET?INITDEVICE
0006C9H   0006D8H   000010H   BYTE   UNIT     CODE           ?PR?TIMER16_3_ENTER_DEFAULTMODE_FROM_RESET?INITDEVICE
0006D9H   0006E8H   000010H   BYTE   UNIT     CODE           ?PR?ENTER_LOWPOWER?LFMASSAGE_MAIN
0006E9H   0006F8H   000010H   BYTE   UNIT     CODE           ?PR?BEEP?LFMASSAGE_MAIN
0006F9H   000703H   00000BH   BYTE   UNIT     CODE           ?PR?_DRIVER_UPDATESENS?DRIVER
000704H   00070DH   00000AH   BYTE   UNIT     CODE           ?PR?TIMER_SETUP_0_ENTER_DEFAULTMODE_FROM_RESET?INITDEVICE
00070EH   000714H   000007H   BYTE   UNIT     CODE           ?PR?INTERRUPT_0_ENTER_DEFAULTMODE_FROM_RESET?INITDEVICE
000715H   00071BH   000007H   BYTE   UNIT     CODE           ?PR?OFFSWITCH?DRIVER
00071CH   000721H   000006H   BYTE   UNIT     CODE           ?PR?SETLEDRED?DRIVER
000722H   000727H   000006H   BYTE   UNIT     CODE           ?PR?SETLEDGRN?DRIVER
000728H   00072DH   000006H   BYTE   UNIT     CODE           ?PR?SETLEDBLU?DRIVER
00072EH   000733H   000006H   BYTE   UNIT     CODE           ?PR?SETIRLED?DRIVER
000734H   000738H   000005H   BYTE   UNIT     CODE           ?PR?SETBTNMODE?DRIVER
000739H   00073DH   000005H   BYTE   UNIT     CODE           ?PR?SETBTNMINUS?DRIVER
00073EH   000741H   000004H   BYTE   UNIT     CODE           ?PR?PBCFG_0_ENTER_DEFAULTMODE_FROM_RESET?INITDEVICE
000742H   000745H   000004H   BYTE   UNIT     CODE           ?PR?EXTINT_0_ENTER_DEFAULTMODE_FROM_RESET?INITDEVICE
000746H   000748H   000003H   BYTE   UNIT     CODE           ?PR?GETBTNPLUS?DRIVER
000749H   00074BH   000003H   BYTE   UNIT     CODE           ?PR?GETBTNMODE?DRIVER
00074CH   00074EH   000003H   BYTE   UNIT     CODE           ?PR?GETBTNMINUS?DRIVER
00074FH   000751H   000003H   BYTE   UNIT     CODE           ?PR?TOGGLEBUZZ?DRIVER
000752H   000754H   000003H   BYTE   UNIT     CODE           ?PR?OFFBUZZ?DRIVER
000755H   000757H   000003H   BYTE   UNIT     CODE           ?PR?TOGGLESWITCH?DRIVER

* * * * * * * * *   R E M O V E D     S E G M E N T S   * * * * * * * *
   *DEL*:           000004H   BYTE   UNIT     CODE           ?PR?VREF_0_ENTER_DEFAULTMODE_FROM_RESET?INITDEVICE
   *DEL*:           000004H   BYTE   UNIT     CODE           ?PR?RSTSRC_0_ENTER_DEFAULTMODE_FROM_RESET?INITDEVICE
   *DEL*:           00001FH   BYTE   UNIT     CODE           ?PR?_PULSEPOS?DRIVER
   *DEL*:           000021H   BYTE   UNIT     CODE           ?PR?_CHARGE?DRIVER
   *DEL*:           000006H   BYTE   UNIT     DATA           ?DT?_CHARGE?DRIVER
   *DEL*:           000012H   BYTE   UNIT     CODE           ?PR?GETSENS?DRIVER



LX51 LINKER/LOCATER V4.66.97.0                                                        10/14/2021  10:03:14  PAGE 3


OVERLAY MAP OF MODULE:   LFMASSAGE.OMF.CRBUILD (INITDEVICE)


FUNCTION/MODULE                                BIT_GROUP   DATA_GROUP 
--> CALLED FUNCTION/MODULE                    START  STOP  START  STOP
======================================================================
TIMER2_ISR/INTERRUPTS                         ----- -----  ----- -----
  +--> TOGGLESWITCH/DRIVER

TOGGLESWITCH/DRIVER                           ----- -----  ----- -----

*** NEW ROOT ********************************

ADC0EOC_ISR/INTERRUPTS                        ----- -----  0008H 000BH
  +--> _DRIVER_UPDATESENS/DRIVER

_DRIVER_UPDATESENS/DRIVER                     ----- -----  ----- -----

*** NEW ROOT ********************************

CMP0_ISR/INTERRUPTS                           ----- -----  ----- -----
  +--> SETBTNMODE/DRIVER

SETBTNMODE/DRIVER                             20H.7 20H.7  ----- -----

*** NEW ROOT ********************************

INT0_ISR/INTERRUPTS                           ----- -----  ----- -----
  +--> SETBTNMINUS/DRIVER

SETBTNMINUS/DRIVER                            20H.7 20H.7  ----- -----

*** NEW ROOT ********************************

INT1_ISR/INTERRUPTS                           ----- -----  ----- -----
  +--> SETBTNPLUS/DRIVER

SETBTNPLUS/DRIVER                             20H.7 20H.7  ----- -----

*** NEW ROOT ********************************

TIMER3_ISR/INTERRUPTS                         ----- -----  ----- -----
  +--> TOGGLEBUZZ/DRIVER

TOGGLEBUZZ/DRIVER                             ----- -----  ----- -----

*** NEW ROOT ********************************

?C_C51STARTUP                                 ----- -----  ----- -----
  +--> SILABS_STARTUP/LFMASSAGE_MAIN
  +--> MAIN/LFMASSAGE_MAIN
  +--> ?C_INITSEG

SILABS_STARTUP/LFMASSAGE_MAIN                 ----- -----  ----- -----

MAIN/LFMASSAGE_MAIN                           ----- -----  ----- -----
  +--> WDT_0_ENTER_DEFAULTMODE_FROM_RESET/INITDEVICE
  +--> ENTER_LOWPOWER/LFMASSAGE_MAIN
  +--> ENTER_DEFAULTMODE_FROM_RESET/INITDEVICE
  +--> INITIALIZE/LFMASSAGE_MAIN
  +--> _PULSENEG/DRIVER
  +--> _TIMER0_DELAY/LFMASSAGE_MAIN
LX51 LINKER/LOCATER V4.66.97.0                                                        10/14/2021  10:03:14  PAGE 4


  +--> GETBTNMODE/DRIVER
  +--> SETBTNMODE/DRIVER
  +--> BEEP/LFMASSAGE_MAIN
  +--> SETLEDRED/DRIVER
  +--> SETLEDGRN/DRIVER
  +--> SETLEDBLU/DRIVER
  +--> SETIRLED/DRIVER
  +--> GETBTNPLUS/DRIVER
  +--> SETBTNPLUS/DRIVER
  +--> GETBTNMINUS/DRIVER
  +--> SETBTNMINUS/DRIVER

WDT_0_ENTER_DEFAULTMODE_FROM_RESET/INITD+     20H.7 20H.7  000CH 000FH
... EVICE

ENTER_LOWPOWER/LFMASSAGE_MAIN                 ----- -----  ----- -----

ENTER_DEFAULTMODE_FROM_RESET/INITDEVICE       ----- -----  ----- -----
  +--> WDT_0_ENTER_DEFAULTMODE_FROM_RESET/INITDEVICE
  +--> PORTS_0_ENTER_DEFAULTMODE_FROM_RESET/INITDEVICE
  +--> PORTS_1_ENTER_DEFAULTMODE_FROM_RESET/INITDEVICE
  +--> PBCFG_0_ENTER_DEFAULTMODE_FROM_RESET/INITDEVICE
  +--> ADC_0_ENTER_DEFAULTMODE_FROM_RESET/INITDEVICE
  +--> CMP_0_ENTER_DEFAULTMODE_FROM_RESET/INITDEVICE
  +--> TIMER01_0_ENTER_DEFAULTMODE_FROM_RESET/INITDEVICE
  +--> TIMER16_2_ENTER_DEFAULTMODE_FROM_RESET/INITDEVICE
  +--> TIMER16_3_ENTER_DEFAULTMODE_FROM_RESET/INITDEVICE
  +--> TIMER_SETUP_0_ENTER_DEFAULTMODE_FROM_RESET/INITDEVICE
  +--> EXTINT_0_ENTER_DEFAULTMODE_FROM_RESET/INITDEVICE
  +--> INTERRUPT_0_ENTER_DEFAULTMODE_FROM_RESET/INITDEVICE

PORTS_0_ENTER_DEFAULTMODE_FROM_RESET/INI+     ----- -----  ----- -----
... TDEVICE

PORTS_1_ENTER_DEFAULTMODE_FROM_RESET/INI+     ----- -----  ----- -----
... TDEVICE

PBCFG_0_ENTER_DEFAULTMODE_FROM_RESET/INI+     ----- -----  ----- -----
... TDEVICE

ADC_0_ENTER_DEFAULTMODE_FROM_RESET/INITD+     ----- -----  ----- -----
... EVICE

CMP_0_ENTER_DEFAULTMODE_FROM_RESET/INITD+     ----- -----  ----- -----
... EVICE

TIMER01_0_ENTER_DEFAULTMODE_FROM_RESET/I+     ----- -----  ----- -----
... NITDEVICE

TIMER16_2_ENTER_DEFAULTMODE_FROM_RESET/I+     ----- -----  ----- -----
... NITDEVICE

TIMER16_3_ENTER_DEFAULTMODE_FROM_RESET/I+     ----- -----  ----- -----
... NITDEVICE

TIMER_SETUP_0_ENTER_DEFAULTMODE_FROM_RES+     ----- -----  ----- -----
... ET/INITDEVICE

EXTINT_0_ENTER_DEFAULTMODE_FROM_RESET/IN+     ----- -----  ----- -----
... ITDEVICE

INTERRUPT_0_ENTER_DEFAULTMODE_FROM_RESET+     ----- -----  ----- -----
LX51 LINKER/LOCATER V4.66.97.0                                                        10/14/2021  10:03:14  PAGE 5


... /INITDEVICE

INITIALIZE/LFMASSAGE_MAIN                     ----- -----  ----- -----
  +--> OFFSWITCH/DRIVER
  +--> SETLEDRED/DRIVER
  +--> SETLEDGRN/DRIVER
  +--> SETLEDBLU/DRIVER
  +--> SETIRLED/DRIVER

OFFSWITCH/DRIVER                              ----- -----  ----- -----

SETLEDRED/DRIVER                              20H.7 20H.7  ----- -----

SETLEDGRN/DRIVER                              20H.7 20H.7  ----- -----

SETLEDBLU/DRIVER                              20H.7 20H.7  ----- -----

SETIRLED/DRIVER                               20H.7 20H.7  ----- -----

_PULSENEG/DRIVER                              ----- -----  ----- -----

_TIMER0_DELAY/LFMASSAGE_MAIN                  ----- -----  ----- -----

GETBTNMODE/DRIVER                             ----- -----  ----- -----

BEEP/LFMASSAGE_MAIN                           ----- -----  ----- -----
  +--> _TIMER0_DELAY/LFMASSAGE_MAIN
  +--> OFFBUZZ/DRIVER

OFFBUZZ/DRIVER                                ----- -----  ----- -----

GETBTNPLUS/DRIVER                             ----- -----  ----- -----

GETBTNMINUS/DRIVER                            ----- -----  ----- -----

?C_INITSEG                                    ----- -----  ----- -----



PUBLIC SYMBOLS OF MODULE:  LFMASSAGE.OMF.CRBUILD (INITDEVICE)


      VALUE       CLASS    TYPE      PUBLIC SYMBOL NAME
      =================================================
      00000000H   NUMBER   ---       ?C?CODESEG
      010001ECH   CODE     ---       ?C?LMUL
      01000309H   CODE     ---       ?C?ULCMP
      01000277H   CODE     ---       ?C?ULDIV
      00000000H   NUMBER   ---       ?C?XDATASEG
      0100041BH   CODE     ---       ?C_START
      01000000H   CODE     NEAR LAB  ?C_STARTUP
      00000020H.7 BIT      BIT       ?setBtnMinus?BIT
      00000020H.7 BIT      BIT       ?setBtnMode?BIT
      00000020H.7 BIT      BIT       ?setBtnPlus?BIT
      00000020H.7 BIT      BIT       ?setIrLed?BIT
      00000020H.7 BIT      BIT       ?setLedBlu?BIT
      00000020H.7 BIT      BIT       ?setLedGrn?BIT
      00000020H.7 BIT      BIT       ?setLedRed?BIT
*DEL*:00000000H   CODE     ---       _charge
      010006F9H   CODE     ---       _driver_updateSens
      01000643H   CODE     ---       _pulseNeg
*DEL*:00000000H   CODE     ---       _pulsePos
LX51 LINKER/LOCATER V4.66.97.0                                                        10/14/2021  10:03:14  PAGE 6


      0100061DH   CODE     ---       _Timer0_Delay
*SFR* 000000E0H   DATA     BYTE      ACC
*SFR* 000000E0H.0 DATA     BIT       ACC_ACC0
*SFR* 000000E0H.1 DATA     BIT       ACC_ACC1
*SFR* 000000E0H.2 DATA     BIT       ACC_ACC2
*SFR* 000000E0H.3 DATA     BIT       ACC_ACC3
*SFR* 000000E0H.4 DATA     BIT       ACC_ACC4
*SFR* 000000E0H.5 DATA     BIT       ACC_ACC5
*SFR* 000000E0H.6 DATA     BIT       ACC_ACC6
*SFR* 000000E0H.7 DATA     BIT       ACC_ACC7
*SFR* 000000BDH   DATA     WORD      ADC0
*SFR* 000000B3H   DATA     BYTE      ADC0AC
*SFR* 000000BCH   DATA     BYTE      ADC0CF
*SFR* 000000E8H   DATA     BYTE      ADC0CN0
*SFR* 000000E8H.6 DATA     BIT       ADC0CN0_ADBMEN
*SFR* 000000E8H.4 DATA     BIT       ADC0CN0_ADBUSY
*SFR* 000000E8H.0 DATA     BIT       ADC0CN0_ADCM0
*SFR* 000000E8H.1 DATA     BIT       ADC0CN0_ADCM1
*SFR* 000000E8H.2 DATA     BIT       ADC0CN0_ADCM2
*SFR* 000000E8H.7 DATA     BIT       ADC0CN0_ADEN
*SFR* 000000E8H.5 DATA     BIT       ADC0CN0_ADINT
*SFR* 000000E8H.3 DATA     BIT       ADC0CN0_ADWINT
*SFR* 000000B2H   DATA     BYTE      ADC0CN1
      0100031AH   CODE     ---       ADC0EOC_ISR
*SFR* 000000C3H   DATA     WORD      ADC0GT
*SFR* 000000C4H   DATA     BYTE      ADC0GTH
*SFR* 000000C3H   DATA     BYTE      ADC0GTL
*SFR* 000000BEH   DATA     BYTE      ADC0H
*SFR* 000000BDH   DATA     BYTE      ADC0L
*SFR* 000000C5H   DATA     WORD      ADC0LT
*SFR* 000000C6H   DATA     BYTE      ADC0LTH
*SFR* 000000C5H   DATA     BYTE      ADC0LTL
*SFR* 000000BBH   DATA     BYTE      ADC0MX
*SFR* 000000DFH   DATA     BYTE      ADC0PWR
*SFR* 000000B9H   DATA     BYTE      ADC0TK
      01000066H   CODE     ---       ADC_0_enter_DefaultMode_from_RESET
*SFR* 000000F0H   DATA     BYTE      B
*SFR* 000000F0H.0 DATA     BIT       B_B0
*SFR* 000000F0H.1 DATA     BIT       B_B1
*SFR* 000000F0H.2 DATA     BIT       B_B2
*SFR* 000000F0H.3 DATA     BIT       B_B3
*SFR* 000000F0H.4 DATA     BIT       B_B4
*SFR* 000000F0H.5 DATA     BIT       B_B5
*SFR* 000000F0H.6 DATA     BIT       B_B6
*SFR* 000000F0H.7 DATA     BIT       B_B7
      010006E9H   CODE     ---       beep
      00000020H.1 BIT      BIT       btn_minus
      00000020H.0 BIT      BIT       btn_mode
      00000020H.2 BIT      BIT       btn_plus
*SFR* 00000080H.7 DATA     BIT       BUZZ
*SFR* 0000008EH   DATA     BYTE      CKCON0
*SFR* 000000A9H   DATA     BYTE      CLKSEL
      010004E4H   CODE     ---       CMP0_ISR
*SFR* 0000009BH   DATA     BYTE      CMP0CN0
*SFR* 0000009DH   DATA     BYTE      CMP0MD
*SFR* 0000009FH   DATA     BYTE      CMP0MX
*SFR* 000000BFH   DATA     BYTE      CMP1CN0
*SFR* 000000ABH   DATA     BYTE      CMP1MD
*SFR* 000000AAH   DATA     BYTE      CMP1MX
      01000683H   CODE     ---       CMP_0_enter_DefaultMode_from_RESET
*SFR* 000000D2H   DATA     BYTE      CRC0AUTO
*SFR* 000000CEH   DATA     BYTE      CRC0CN0
LX51 LINKER/LOCATER V4.66.97.0                                                        10/14/2021  10:03:14  PAGE 7


*SFR* 000000D3H   DATA     BYTE      CRC0CNT
*SFR* 000000DEH   DATA     BYTE      CRC0DAT
*SFR* 000000CFH   DATA     BYTE      CRC0FLIP
*SFR* 000000DDH   DATA     BYTE      CRC0IN
*SFR* 000000ADH   DATA     BYTE      DERIVID
*SFR* 000000B5H   DATA     BYTE      DEVICEID
*SFR* 00000082H   DATA     WORD      DP
*SFR* 00000083H   DATA     BYTE      DPH
*SFR* 00000082H   DATA     BYTE      DPL
*SFR* 000000E6H   DATA     BYTE      EIE1
*SFR* 000000F3H   DATA     BYTE      EIP1
      0100002EH   CODE     ---       enter_DefaultMode_from_RESET
      010006D9H   CODE     ---       enter_lowpower
      01000742H   CODE     ---       EXTINT_0_enter_DefaultMode_from_RESET
*SFR* 000000B7H   DATA     BYTE      FLKEY
      0100074CH   CODE     ---       getBtnMinus
      01000749H   CODE     ---       getBtnMode
      01000746H   CODE     ---       getBtnPlus
*DEL*:00000000H   CODE     ---       getSens
*SFR* 000000C7H   DATA     BYTE      HFO0CAL
*SFR* 000000A8H   DATA     BYTE      IE
*SFR* 000000A8H.7 DATA     BIT       IE_EA
*SFR* 000000A8H.4 DATA     BIT       IE_ES0
*SFR* 000000A8H.6 DATA     BIT       IE_ESPI0
*SFR* 000000A8H.1 DATA     BIT       IE_ET0
*SFR* 000000A8H.3 DATA     BIT       IE_ET1
*SFR* 000000A8H.5 DATA     BIT       IE_ET2
*SFR* 000000A8H.0 DATA     BIT       IE_EX0
*SFR* 000000A8H.2 DATA     BIT       IE_EX1
      0100069CH   CODE     ---       initialize
      0100059FH   CODE     ---       INT0_ISR
      010005DCH   CODE     ---       INT1_ISR
      0100070EH   CODE     ---       INTERRUPT_0_enter_DefaultMode_from_RESET
*SFR* 000000B8H   DATA     BYTE      IP
*SFR* 000000B8H.4 DATA     BIT       IP_PS0
*SFR* 000000B8H.6 DATA     BIT       IP_PSPI0
*SFR* 000000B8H.1 DATA     BIT       IP_PT0
*SFR* 000000B8H.3 DATA     BIT       IP_PT1
*SFR* 000000B8H.5 DATA     BIT       IP_PT2
*SFR* 000000B8H.0 DATA     BIT       IP_PX0
*SFR* 000000B8H.2 DATA     BIT       IP_PX1
*SFR* 00000080H.6 DATA     BIT       IRLED
*SFR* 000000E4H   DATA     BYTE      IT01CF
*SFR* 00000080H.5 DATA     BIT       LEDB
*SFR* 00000080H.4 DATA     BIT       LEDG
*SFR* 00000080H.3 DATA     BIT       LEDR
*SFR* 000000B1H   DATA     BYTE      LFO0CN
      00000017H   DATA     BYTE      mag
      01000076H   CODE     ---       main
      00000016H   DATA     BYTE      mode
      01000752H   CODE     ---       offBuzz
      01000715H   CODE     ---       offSwitch
*SFR* 00000080H   DATA     BYTE      P0
*SFR* 00000080H.0 DATA     BIT       P0_B0
*SFR* 00000080H.1 DATA     BIT       P0_B1
*SFR* 00000080H.2 DATA     BIT       P0_B2
*SFR* 00000080H.3 DATA     BIT       P0_B3
*SFR* 00000080H.4 DATA     BIT       P0_B4
*SFR* 00000080H.5 DATA     BIT       P0_B5
*SFR* 00000080H.6 DATA     BIT       P0_B6
*SFR* 00000080H.7 DATA     BIT       P0_B7
*SFR* 000000FEH   DATA     BYTE      P0MASK
LX51 LINKER/LOCATER V4.66.97.0                                                        10/14/2021  10:03:14  PAGE 8


*SFR* 000000FDH   DATA     BYTE      P0MAT
*SFR* 000000F1H   DATA     BYTE      P0MDIN
*SFR* 000000A4H   DATA     BYTE      P0MDOUT
*SFR* 000000D4H   DATA     BYTE      P0SKIP
*SFR* 00000090H   DATA     BYTE      P1
*SFR* 00000090H.0 DATA     BIT       P1_B0
*SFR* 00000090H.1 DATA     BIT       P1_B1
*SFR* 00000090H.2 DATA     BIT       P1_B2
*SFR* 00000090H.3 DATA     BIT       P1_B3
*SFR* 00000090H.4 DATA     BIT       P1_B4
*SFR* 00000090H.5 DATA     BIT       P1_B5
*SFR* 00000090H.6 DATA     BIT       P1_B6
*SFR* 00000090H.7 DATA     BIT       P1_B7
*SFR* 000000EEH   DATA     BYTE      P1MASK
*SFR* 000000EDH   DATA     BYTE      P1MAT
*SFR* 000000F2H   DATA     BYTE      P1MDIN
*SFR* 000000A5H   DATA     BYTE      P1MDOUT
*SFR* 000000D5H   DATA     BYTE      P1SKIP
*SFR* 000000A0H   DATA     BYTE      P2
*SFR* 000000A0H.0 DATA     BIT       P2_B0
*SFR* 000000A0H.1 DATA     BIT       P2_B1
*SFR* 000000A6H   DATA     BYTE      P2MDOUT
      0100073EH   CODE     ---       PBCFG_0_enter_DefaultMode_from_RESET
*SFR* 000000F9H   DATA     WORD      PCA0
*SFR* 0000009EH   DATA     BYTE      PCA0CENT
*SFR* 0000009CH   DATA     BYTE      PCA0CLR
*SFR* 000000D8H   DATA     BYTE      PCA0CN0
*SFR* 000000D8H.0 DATA     BIT       PCA0CN0_CCF0
*SFR* 000000D8H.1 DATA     BIT       PCA0CN0_CCF1
*SFR* 000000D8H.2 DATA     BIT       PCA0CN0_CCF2
*SFR* 000000D8H.7 DATA     BIT       PCA0CN0_CF
*SFR* 000000D8H.6 DATA     BIT       PCA0CN0_CR
*SFR* 000000FBH   DATA     WORD      PCA0CP0
*SFR* 000000E9H   DATA     WORD      PCA0CP1
*SFR* 000000EBH   DATA     WORD      PCA0CP2
*SFR* 000000FCH   DATA     BYTE      PCA0CPH0
*SFR* 000000EAH   DATA     BYTE      PCA0CPH1
*SFR* 000000ECH   DATA     BYTE      PCA0CPH2
*SFR* 000000FBH   DATA     BYTE      PCA0CPL0
*SFR* 000000E9H   DATA     BYTE      PCA0CPL1
*SFR* 000000EBH   DATA     BYTE      PCA0CPL2
*SFR* 000000DAH   DATA     BYTE      PCA0CPM0
*SFR* 000000DBH   DATA     BYTE      PCA0CPM1
*SFR* 000000DCH   DATA     BYTE      PCA0CPM2
*SFR* 000000FAH   DATA     BYTE      PCA0H
*SFR* 000000F9H   DATA     BYTE      PCA0L
*SFR* 000000D9H   DATA     BYTE      PCA0MD
*SFR* 00000096H   DATA     BYTE      PCA0POL
*SFR* 000000F7H   DATA     BYTE      PCA0PWM
*SFR* 00000087H   DATA     BYTE      PCON0
      01000006H   CODE     ---       PORTS_0_enter_DefaultMode_from_RESET
      01000056H   CODE     ---       PORTS_1_enter_DefaultMode_from_RESET
*SFR* 000000A0H   DATA     BYTE      PPAGE_SFR
*SFR* 000000F6H   DATA     BYTE      PRTDRV
*SFR* 0000008FH   DATA     BYTE      PSCTL
*SFR* 000000D0H   DATA     BYTE      PSW
*SFR* 000000D0H.6 DATA     BIT       PSW_AC
*SFR* 000000D0H.7 DATA     BIT       PSW_CY
*SFR* 000000D0H.5 DATA     BIT       PSW_F0
*SFR* 000000D0H.1 DATA     BIT       PSW_F1
*SFR* 000000D0H.2 DATA     BIT       PSW_OV
*SFR* 000000D0H.0 DATA     BIT       PSW_PARITY
LX51 LINKER/LOCATER V4.66.97.0                                                        10/14/2021  10:03:14  PAGE 9


*SFR* 000000D0H.3 DATA     BIT       PSW_RS0
*SFR* 000000D0H.4 DATA     BIT       PSW_RS1
*SFR* 000000D1H   DATA     BYTE      REF0CN
*SFR* 000000C9H   DATA     BYTE      REG0CN
*SFR* 000000B6H   DATA     BYTE      REVID
*SFR* 000000EFH   DATA     BYTE      RSTSRC
*DEL*:00000000H   CODE     ---       RSTSRC_0_enter_DefaultMode_from_RESET
*SFR* 00000099H   DATA     BYTE      SBUF0
*SFR* 00000098H   DATA     BYTE      SCON0
*SFR* 00000098H.5 DATA     BIT       SCON0_MCE
*SFR* 00000098H.2 DATA     BIT       SCON0_RB8
*SFR* 00000098H.4 DATA     BIT       SCON0_REN
*SFR* 00000098H.0 DATA     BIT       SCON0_RI
*SFR* 00000098H.7 DATA     BIT       SCON0_SMODE
*SFR* 00000098H.3 DATA     BIT       SCON0_TB8
*SFR* 00000098H.1 DATA     BIT       SCON0_TI
      0000001CH   DATA     DWORD     sens_mv
      00000020H.3 BIT      BIT       sensing
      01000739H   CODE     ---       setBtnMinus
      01000734H   CODE     ---       setBtnMode
      01000026H   CODE     ---       setBtnPlus
      0100072EH   CODE     ---       setIrLed
      01000728H   CODE     ---       setLedBlu
      01000722H   CODE     ---       setLedGrn
      0100071CH   CODE     ---       setLedRed
      01000052H   CODE     ---       SiLabs_Startup
*SFR* 000000D6H   DATA     BYTE      SMB0ADM
*SFR* 000000D7H   DATA     BYTE      SMB0ADR
*SFR* 000000C1H   DATA     BYTE      SMB0CF
*SFR* 000000C0H   DATA     BYTE      SMB0CN0
*SFR* 000000C0H.1 DATA     BIT       SMB0CN0_ACK
*SFR* 000000C0H.3 DATA     BIT       SMB0CN0_ACKRQ
*SFR* 000000C0H.2 DATA     BIT       SMB0CN0_ARBLOST
*SFR* 000000C0H.7 DATA     BIT       SMB0CN0_MASTER
*SFR* 000000C0H.0 DATA     BIT       SMB0CN0_SI
*SFR* 000000C0H.5 DATA     BIT       SMB0CN0_STA
*SFR* 000000C0H.4 DATA     BIT       SMB0CN0_STO
*SFR* 000000C0H.6 DATA     BIT       SMB0CN0_TXMODE
*SFR* 000000C2H   DATA     BYTE      SMB0DAT
*SFR* 000000ACH   DATA     BYTE      SMB0TC
*SFR* 00000081H   DATA     BYTE      SP
*SFR* 000000A1H   DATA     BYTE      SPI0CFG
*SFR* 000000A2H   DATA     BYTE      SPI0CKR
*SFR* 000000F8H   DATA     BYTE      SPI0CN0
*SFR* 000000F8H.5 DATA     BIT       SPI0CN0_MODF
*SFR* 000000F8H.2 DATA     BIT       SPI0CN0_NSSMD0
*SFR* 000000F8H.3 DATA     BIT       SPI0CN0_NSSMD1
*SFR* 000000F8H.4 DATA     BIT       SPI0CN0_RXOVRN
*SFR* 000000F8H.0 DATA     BIT       SPI0CN0_SPIEN
*SFR* 000000F8H.7 DATA     BIT       SPI0CN0_SPIF
*SFR* 000000F8H.1 DATA     BIT       SPI0CN0_TXBMT
*SFR* 000000F8H.6 DATA     BIT       SPI0CN0_WCOL
*SFR* 000000A3H   DATA     BYTE      SPI0DAT
*SFR* 00000090H.2 DATA     BIT       SW
*SFR* 00000090H.0 DATA     BIT       SWNEG
*SFR* 00000090H.1 DATA     BIT       SWPOS
*SFR* 00000088H   DATA     BYTE      TCON
*SFR* 00000088H.1 DATA     BIT       TCON_IE0
*SFR* 00000088H.3 DATA     BIT       TCON_IE1
*SFR* 00000088H.0 DATA     BIT       TCON_IT0
*SFR* 00000088H.2 DATA     BIT       TCON_IT1
*SFR* 00000088H.5 DATA     BIT       TCON_TF0
LX51 LINKER/LOCATER V4.66.97.0                                                        10/14/2021  10:03:14  PAGE 10


*SFR* 00000088H.7 DATA     BIT       TCON_TF1
*SFR* 00000088H.4 DATA     BIT       TCON_TR0
*SFR* 00000088H.6 DATA     BIT       TCON_TR1
*SFR* 0000008CH   DATA     BYTE      TH0
*SFR* 0000008DH   DATA     BYTE      TH1
      010006B3H   CODE     ---       TIMER01_0_enter_DefaultMode_from_RESET
      01000016H   CODE     ---       TIMER16_2_enter_DefaultMode_from_RESET
      010006C9H   CODE     ---       TIMER16_3_enter_DefaultMode_from_RESET
      01000562H   CODE     ---       TIMER2_ISR
      01000524H   CODE     ---       TIMER3_ISR
      01000704H   CODE     ---       TIMER_SETUP_0_enter_DefaultMode_from_RESET
*SFR* 0000008AH   DATA     BYTE      TL0
*SFR* 0000008BH   DATA     BYTE      TL1
*SFR* 00000089H   DATA     BYTE      TMOD
*SFR* 000000CCH   DATA     WORD      TMR2
*SFR* 000000C8H   DATA     BYTE      TMR2CN0
*SFR* 000000C8H.3 DATA     BIT       TMR2CN0_T2SPLIT
*SFR* 000000C8H.0 DATA     BIT       TMR2CN0_T2XCLK
*SFR* 000000C8H.4 DATA     BIT       TMR2CN0_TF2CEN
*SFR* 000000C8H.7 DATA     BIT       TMR2CN0_TF2H
*SFR* 000000C8H.6 DATA     BIT       TMR2CN0_TF2L
*SFR* 000000C8H.5 DATA     BIT       TMR2CN0_TF2LEN
*SFR* 000000C8H.2 DATA     BIT       TMR2CN0_TR2
*SFR* 000000CDH   DATA     BYTE      TMR2H
*SFR* 000000CCH   DATA     BYTE      TMR2L
*SFR* 000000CAH   DATA     WORD      TMR2RL
*SFR* 000000CBH   DATA     BYTE      TMR2RLH
*SFR* 000000CAH   DATA     BYTE      TMR2RLL
*SFR* 00000094H   DATA     WORD      TMR3
*SFR* 00000091H   DATA     BYTE      TMR3CN0
*SFR* 00000095H   DATA     BYTE      TMR3H
*SFR* 00000094H   DATA     BYTE      TMR3L
*SFR* 00000092H   DATA     WORD      TMR3RL
*SFR* 00000093H   DATA     BYTE      TMR3RLH
*SFR* 00000092H   DATA     BYTE      TMR3RLL
      0100074FH   CODE     ---       toggleBuzz
      01000755H   CODE     ---       toggleSwitch
*SFR* 000000FFH   DATA     BYTE      VDM0CN
*DEL*:00000000H   CODE     ---       VREF_0_enter_DefaultMode_from_RESET
      01000460H   CODE     ---       WDT_0_enter_DefaultMode_from_RESET
*SFR* 00000097H   DATA     BYTE      WDTCN
*SFR* 000000E1H   DATA     BYTE      XBR0
*SFR* 000000E2H   DATA     BYTE      XBR1
*SFR* 000000E3H   DATA     BYTE      XBR2



SYMBOL TABLE OF MODULE:  LFMASSAGE.OMF.CRBUILD (INITDEVICE)

      VALUE       REP       CLASS    TYPE      SYMBOL NAME
      ====================================================
      ---         MODULE    ---      ---       INITDEVICE
      010006C9H   PUBLIC    CODE     ---       TIMER16_3_enter_DefaultMode_from_RESET
      01000742H   PUBLIC    CODE     ---       EXTINT_0_enter_DefaultMode_from_RESET
      01000683H   PUBLIC    CODE     ---       CMP_0_enter_DefaultMode_from_RESET
      01000704H   PUBLIC    CODE     ---       TIMER_SETUP_0_enter_DefaultMode_from_RESET
      010006B3H   PUBLIC    CODE     ---       TIMER01_0_enter_DefaultMode_from_RESET
      01000066H   PUBLIC    CODE     ---       ADC_0_enter_DefaultMode_from_RESET
      01000056H   PUBLIC    CODE     ---       PORTS_1_enter_DefaultMode_from_RESET
      01000016H   PUBLIC    CODE     ---       TIMER16_2_enter_DefaultMode_from_RESET
      01000460H   PUBLIC    CODE     ---       WDT_0_enter_DefaultMode_from_RESET
      0100070EH   PUBLIC    CODE     ---       INTERRUPT_0_enter_DefaultMode_from_RESET
LX51 LINKER/LOCATER V4.66.97.0                                                        10/14/2021  10:03:14  PAGE 11


      0100073EH   PUBLIC    CODE     ---       PBCFG_0_enter_DefaultMode_from_RESET
      01000006H   PUBLIC    CODE     ---       PORTS_0_enter_DefaultMode_from_RESET
      0100002EH   PUBLIC    CODE     ---       enter_DefaultMode_from_RESET
      000000A2H   SFRSYM    DATA     BYTE      SPI0CKR
      00000080H   SFRSYM    DATA     BYTE      P0
      000000D0H.2 SFRSYM    DATA     BIT       PSW_OV
      00000090H   SFRSYM    DATA     BYTE      P1
      00000097H   SFRSYM    DATA     BYTE      WDTCN
      000000A0H   SFRSYM    DATA     BYTE      P2
      000000BCH   SFRSYM    DATA     BYTE      ADC0CF
      000000C8H.0 SFRSYM    DATA     BIT       TMR2CN0_T2XCLK
      000000C0H.7 SFRSYM    DATA     BIT       SMB0CN0_MASTER
      000000F9H   SFRSYM    DATA     WORD      PCA0
      000000E6H   SFRSYM    DATA     BYTE      EIE1
      000000C0H.1 SFRSYM    DATA     BIT       SMB0CN0_ACK
      0000008FH   SFRSYM    DATA     BYTE      PSCTL
      000000E4H   SFRSYM    DATA     BYTE      IT01CF
      000000C0H.6 SFRSYM    DATA     BIT       SMB0CN0_TXMODE
      000000ADH   SFRSYM    DATA     BYTE      DERIVID
      000000A4H   SFRSYM    DATA     BYTE      P0MDOUT
      000000A5H   SFRSYM    DATA     BYTE      P1MDOUT
      000000E8H.5 SFRSYM    DATA     BIT       ADC0CN0_ADINT
      000000CBH   SFRSYM    DATA     BYTE      TMR2RLH
      000000A6H   SFRSYM    DATA     BYTE      P2MDOUT
      000000A8H   SFRSYM    DATA     BYTE      IE
      00000093H   SFRSYM    DATA     BYTE      TMR3RLH
      000000F3H   SFRSYM    DATA     BYTE      EIP1
      00000098H.2 SFRSYM    DATA     BIT       SCON0_RB8
      000000CAH   SFRSYM    DATA     BYTE      TMR2RLL
      000000FCH   SFRSYM    DATA     BYTE      PCA0CPH0
      00000092H   SFRSYM    DATA     BYTE      TMR3RLL
      000000EAH   SFRSYM    DATA     BYTE      PCA0CPH1
      00000098H.3 SFRSYM    DATA     BIT       SCON0_TB8
      000000F0H.0 SFRSYM    DATA     BIT       B_B0
      00000082H   SFRSYM    DATA     WORD      DP
      000000ECH   SFRSYM    DATA     BYTE      PCA0CPH2
      000000F0H.1 SFRSYM    DATA     BIT       B_B1
      000000C3H   SFRSYM    DATA     WORD      ADC0GT
      000000F0H.2 SFRSYM    DATA     BIT       B_B2
      000000FBH   SFRSYM    DATA     BYTE      PCA0CPL0
      000000F0H.3 SFRSYM    DATA     BIT       B_B3
      000000D9H   SFRSYM    DATA     BYTE      PCA0MD
      000000DAH   SFRSYM    DATA     BYTE      PCA0CPM0
      000000E9H   SFRSYM    DATA     BYTE      PCA0CPL1
      000000F0H.4 SFRSYM    DATA     BIT       B_B4
      000000DBH   SFRSYM    DATA     BYTE      PCA0CPM1
      000000EBH   SFRSYM    DATA     BYTE      PCA0CPL2
      000000F0H.5 SFRSYM    DATA     BIT       B_B5
      000000DCH   SFRSYM    DATA     BYTE      PCA0CPM2
      000000B8H   SFRSYM    DATA     BYTE      IP
      000000B9H   SFRSYM    DATA     BYTE      ADC0TK
      000000F0H.6 SFRSYM    DATA     BIT       B_B6
      000000C5H   SFRSYM    DATA     WORD      ADC0LT
      00000098H.5 SFRSYM    DATA     BIT       SCON0_MCE
      000000F0H.7 SFRSYM    DATA     BIT       B_B7
      000000E1H   SFRSYM    DATA     BYTE      XBR0
      000000C1H   SFRSYM    DATA     BYTE      SMB0CF
      000000E2H   SFRSYM    DATA     BYTE      XBR1
      000000C0H.5 SFRSYM    DATA     BIT       SMB0CN0_STA
      000000E3H   SFRSYM    DATA     BYTE      XBR2
      000000BBH   SFRSYM    DATA     BYTE      ADC0MX
      000000E0H.0 SFRSYM    DATA     BIT       ACC_ACC0
LX51 LINKER/LOCATER V4.66.97.0                                                        10/14/2021  10:03:14  PAGE 12


      000000D1H   SFRSYM    DATA     BYTE      REF0CN
      0000008EH   SFRSYM    DATA     BYTE      CKCON0
      000000E0H.1 SFRSYM    DATA     BIT       ACC_ACC1
      000000C9H   SFRSYM    DATA     BYTE      REG0CN
      000000DDH   SFRSYM    DATA     BYTE      CRC0IN
      000000C8H.2 SFRSYM    DATA     BIT       TMR2CN0_TR2
      000000E0H.2 SFRSYM    DATA     BIT       ACC_ACC2
      000000E0H.3 SFRSYM    DATA     BIT       ACC_ACC3
      00000081H   SFRSYM    DATA     BYTE      SP
      0000009DH   SFRSYM    DATA     BYTE      CMP0MD
      000000E0H.4 SFRSYM    DATA     BIT       ACC_ACC4
      000000B1H   SFRSYM    DATA     BYTE      LFO0CN
      000000ABH   SFRSYM    DATA     BYTE      CMP1MD
      000000D8H.0 SFRSYM    DATA     BIT       PCA0CN0_CCF0
      000000E0H.5 SFRSYM    DATA     BIT       ACC_ACC5
      000000D8H.1 SFRSYM    DATA     BIT       PCA0CN0_CCF1
      000000E0H.6 SFRSYM    DATA     BIT       ACC_ACC6
      000000CCH   SFRSYM    DATA     WORD      TMR2
      000000D8H.2 SFRSYM    DATA     BIT       PCA0CN0_CCF2
      000000E0H.7 SFRSYM    DATA     BIT       ACC_ACC7
      00000094H   SFRSYM    DATA     WORD      TMR3
      000000C0H.3 SFRSYM    DATA     BIT       SMB0CN0_ACKRQ
      000000FFH   SFRSYM    DATA     BYTE      VDM0CN
      000000F1H   SFRSYM    DATA     BYTE      P0MDIN
      00000098H.4 SFRSYM    DATA     BIT       SCON0_REN
      000000ACH   SFRSYM    DATA     BYTE      SMB0TC
      000000F2H   SFRSYM    DATA     BYTE      P1MDIN
      000000C0H.4 SFRSYM    DATA     BIT       SMB0CN0_STO
      000000FEH   SFRSYM    DATA     BYTE      P0MASK
      000000EEH   SFRSYM    DATA     BYTE      P1MASK
      000000D0H.3 SFRSYM    DATA     BIT       PSW_RS0
      000000D8H.7 SFRSYM    DATA     BIT       PCA0CN0_CF
      0000009EH   SFRSYM    DATA     BYTE      PCA0CENT
      000000F8H.4 SFRSYM    DATA     BIT       SPI0CN0_RXOVRN
      000000D0H.4 SFRSYM    DATA     BIT       PSW_RS1
      000000E8H.7 SFRSYM    DATA     BIT       ADC0CN0_ADEN
      00000089H   SFRSYM    DATA     BYTE      TMOD
      00000088H   SFRSYM    DATA     BYTE      TCON
      000000CFH   SFRSYM    DATA     BYTE      CRC0FLIP
      000000D0H.0 SFRSYM    DATA     BIT       PSW_PARITY
      000000A8H.4 SFRSYM    DATA     BIT       IE_ES0
      0000009FH   SFRSYM    DATA     BYTE      CMP0MX
      000000A8H.1 SFRSYM    DATA     BIT       IE_ET0
      000000AAH   SFRSYM    DATA     BYTE      CMP1MX
      000000A8H.3 SFRSYM    DATA     BIT       IE_ET1
      000000D4H   SFRSYM    DATA     BYTE      P0SKIP
      000000A8H.5 SFRSYM    DATA     BIT       IE_ET2
      000000D5H   SFRSYM    DATA     BYTE      P1SKIP
      000000E8H   SFRSYM    DATA     BYTE      ADC0CN0
      000000A8H.0 SFRSYM    DATA     BIT       IE_EX0
      000000B2H   SFRSYM    DATA     BYTE      ADC0CN1
      000000D8H.6 SFRSYM    DATA     BIT       PCA0CN0_CR
      000000A8H.2 SFRSYM    DATA     BIT       IE_EX1
      00000098H.7 SFRSYM    DATA     BIT       SCON0_SMODE
      000000B5H   SFRSYM    DATA     BYTE      DEVICEID
      000000A9H   SFRSYM    DATA     BYTE      CLKSEL
      000000F8H.0 SFRSYM    DATA     BIT       SPI0CN0_SPIEN
      000000F0H   SFRSYM    DATA     BYTE      B
      000000BEH   SFRSYM    DATA     BYTE      ADC0H
      000000D2H   SFRSYM    DATA     BYTE      CRC0AUTO
      000000E8H.6 SFRSYM    DATA     BIT       ADC0CN0_ADBMEN
      000000CAH   SFRSYM    DATA     WORD      TMR2RL
LX51 LINKER/LOCATER V4.66.97.0                                                        10/14/2021  10:03:14  PAGE 13


      000000BDH   SFRSYM    DATA     BYTE      ADC0L
      00000092H   SFRSYM    DATA     WORD      TMR3RL
      000000D8H   SFRSYM    DATA     BYTE      PCA0CN0
      000000E0H   SFRSYM    DATA     BYTE      ACC
      000000FBH   SFRSYM    DATA     WORD      PCA0CP0
      000000E9H   SFRSYM    DATA     WORD      PCA0CP1
      000000EBH   SFRSYM    DATA     WORD      PCA0CP2
      000000CEH   SFRSYM    DATA     BYTE      CRC0CN0
      0000008CH   SFRSYM    DATA     BYTE      TH0
      000000B8H.4 SFRSYM    DATA     BIT       IP_PS0
      0000008DH   SFRSYM    DATA     BYTE      TH1
      000000FAH   SFRSYM    DATA     BYTE      PCA0H
      000000B8H.1 SFRSYM    DATA     BIT       IP_PT0
      000000B8H.3 SFRSYM    DATA     BIT       IP_PT1
      000000C0H.2 SFRSYM    DATA     BIT       SMB0CN0_ARBLOST
      000000B8H.5 SFRSYM    DATA     BIT       IP_PT2
      0000008AH   SFRSYM    DATA     BYTE      TL0
      000000F8H.1 SFRSYM    DATA     BIT       SPI0CN0_TXBMT
      000000D0H.5 SFRSYM    DATA     BIT       PSW_F0
      000000A8H.6 SFRSYM    DATA     BIT       IE_ESPI0
      0000008BH   SFRSYM    DATA     BYTE      TL1
      000000F9H   SFRSYM    DATA     BYTE      PCA0L
      000000C0H.0 SFRSYM    DATA     BIT       SMB0CN0_SI
      000000D0H.1 SFRSYM    DATA     BIT       PSW_F1
      00000080H.0 SFRSYM    DATA     BIT       P0_B0
      000000B8H.0 SFRSYM    DATA     BIT       IP_PX0
      00000090H.0 SFRSYM    DATA     BIT       P1_B0
      00000080H.1 SFRSYM    DATA     BIT       P0_B1
      000000B8H.2 SFRSYM    DATA     BIT       IP_PX1
      0000009BH   SFRSYM    DATA     BYTE      CMP0CN0
      00000088H.1 SFRSYM    DATA     BIT       TCON_IE0
      000000A0H.0 SFRSYM    DATA     BIT       P2_B0
      00000090H.1 SFRSYM    DATA     BIT       P1_B1
      00000080H.2 SFRSYM    DATA     BIT       P0_B2
      000000BFH   SFRSYM    DATA     BYTE      CMP1CN0
      00000088H.3 SFRSYM    DATA     BIT       TCON_IE1
      000000A0H.1 SFRSYM    DATA     BIT       P2_B1
      00000090H.2 SFRSYM    DATA     BIT       P1_B2
      00000080H.3 SFRSYM    DATA     BIT       P0_B3
      000000C0H   SFRSYM    DATA     BYTE      SMB0CN0
      00000090H.3 SFRSYM    DATA     BIT       P1_B3
      00000080H.4 SFRSYM    DATA     BIT       P0_B4
      00000090H.4 SFRSYM    DATA     BIT       P1_B4
      00000080H.5 SFRSYM    DATA     BIT       P0_B5
      00000090H.5 SFRSYM    DATA     BIT       P1_B5
      00000080H.6 SFRSYM    DATA     BIT       P0_B6
      00000090H.6 SFRSYM    DATA     BIT       P1_B6
      00000080H.7 SFRSYM    DATA     BIT       P0_B7
      00000090H.7 SFRSYM    DATA     BIT       P1_B7
      00000083H   SFRSYM    DATA     BYTE      DPH
      000000C4H   SFRSYM    DATA     BYTE      ADC0GTH
      000000C8H.7 SFRSYM    DATA     BIT       TMR2CN0_TF2H
      000000C8H.3 SFRSYM    DATA     BIT       TMR2CN0_T2SPLIT
      000000D0H.6 SFRSYM    DATA     BIT       PSW_AC
      000000F8H   SFRSYM    DATA     BYTE      SPI0CN0
      000000C7H   SFRSYM    DATA     BYTE      HFO0CAL
      00000088H.5 SFRSYM    DATA     BIT       TCON_TF0
      00000098H.0 SFRSYM    DATA     BIT       SCON0_RI
      00000082H   SFRSYM    DATA     BYTE      DPL
      00000088H.7 SFRSYM    DATA     BIT       TCON_TF1
      00000099H   SFRSYM    DATA     BYTE      SBUF0
      00000087H   SFRSYM    DATA     BYTE      PCON0
LX51 LINKER/LOCATER V4.66.97.0                                                        10/14/2021  10:03:14  PAGE 14


      000000C3H   SFRSYM    DATA     BYTE      ADC0GTL
      000000C8H.6 SFRSYM    DATA     BIT       TMR2CN0_TF2L
      00000098H.1 SFRSYM    DATA     BIT       SCON0_TI
      000000E8H.0 SFRSYM    DATA     BIT       ADC0CN0_ADCM0
      000000C6H   SFRSYM    DATA     BYTE      ADC0LTH
      00000088H.0 SFRSYM    DATA     BIT       TCON_IT0
      000000E8H.1 SFRSYM    DATA     BIT       ADC0CN0_ADCM1
      000000EFH   SFRSYM    DATA     BYTE      RSTSRC
      000000FDH   SFRSYM    DATA     BYTE      P0MAT
      000000DEH   SFRSYM    DATA     BYTE      CRC0DAT
      00000088H.2 SFRSYM    DATA     BIT       TCON_IT1
      000000E8H.2 SFRSYM    DATA     BIT       ADC0CN0_ADCM2
      00000098H   SFRSYM    DATA     BYTE      SCON0
      000000F6H   SFRSYM    DATA     BYTE      PRTDRV
      000000EDH   SFRSYM    DATA     BYTE      P1MAT
      000000E8H.3 SFRSYM    DATA     BIT       ADC0CN0_ADWINT
      000000E8H.4 SFRSYM    DATA     BIT       ADC0CN0_ADBUSY
      000000D6H   SFRSYM    DATA     BYTE      SMB0ADM
      000000C5H   SFRSYM    DATA     BYTE      ADC0LTL
      000000F8H.5 SFRSYM    DATA     BIT       SPI0CN0_MODF
      000000B8H.6 SFRSYM    DATA     BIT       IP_PSPI0
      0000009CH   SFRSYM    DATA     BYTE      PCA0CLR
      000000C8H   SFRSYM    DATA     BYTE      TMR2CN0
      00000091H   SFRSYM    DATA     BYTE      TMR3CN0
      000000D7H   SFRSYM    DATA     BYTE      SMB0ADR
      00000088H.4 SFRSYM    DATA     BIT       TCON_TR0
      000000C8H.4 SFRSYM    DATA     BIT       TMR2CN0_TF2CEN
      00000088H.6 SFRSYM    DATA     BIT       TCON_TR1
      000000C2H   SFRSYM    DATA     BYTE      SMB0DAT
      000000CDH   SFRSYM    DATA     BYTE      TMR2H
      000000A1H   SFRSYM    DATA     BYTE      SPI0CFG
      00000095H   SFRSYM    DATA     BYTE      TMR3H
      000000D3H   SFRSYM    DATA     BYTE      CRC0CNT
      00000096H   SFRSYM    DATA     BYTE      PCA0POL
      000000CCH   SFRSYM    DATA     BYTE      TMR2L
      000000F8H.7 SFRSYM    DATA     BIT       SPI0CN0_SPIF
      00000094H   SFRSYM    DATA     BYTE      TMR3L
      000000DFH   SFRSYM    DATA     BYTE      ADC0PWR
      000000A8H.7 SFRSYM    DATA     BIT       IE_EA
      000000C8H.5 SFRSYM    DATA     BIT       TMR2CN0_TF2LEN
      000000F8H.6 SFRSYM    DATA     BIT       SPI0CN0_WCOL
      000000F8H.2 SFRSYM    DATA     BIT       SPI0CN0_NSSMD0
      000000D0H.7 SFRSYM    DATA     BIT       PSW_CY
      000000A3H   SFRSYM    DATA     BYTE      SPI0DAT
      000000F8H.3 SFRSYM    DATA     BIT       SPI0CN0_NSSMD1
      000000BDH   SFRSYM    DATA     WORD      ADC0
      000000D0H   SFRSYM    DATA     BYTE      PSW
      000000F7H   SFRSYM    DATA     BYTE      PCA0PWM
      000000B6H   SFRSYM    DATA     BYTE      REVID
      000000B7H   SFRSYM    DATA     BYTE      FLKEY
      000000B3H   SFRSYM    DATA     BYTE      ADC0AC

      0100002EH   BLOCK     CODE     ---       LVL=0
      0100002EH   LINE      CODE     ---       #23
      0100002EH   LINE      CODE     ---       #24
      0100002EH   LINE      CODE     ---       #26
      01000031H   LINE      CODE     ---       #27
      01000034H   LINE      CODE     ---       #28
      01000037H   LINE      CODE     ---       #29
      0100003AH   LINE      CODE     ---       #30
      0100003DH   LINE      CODE     ---       #31
      01000040H   LINE      CODE     ---       #32
LX51 LINKER/LOCATER V4.66.97.0                                                        10/14/2021  10:03:14  PAGE 15


      01000043H   LINE      CODE     ---       #33
      01000046H   LINE      CODE     ---       #34
      01000049H   LINE      CODE     ---       #35
      0100004CH   LINE      CODE     ---       #36
      0100004FH   LINE      CODE     ---       #37
      ---         BLOCKEND  ---      ---       LVL=0

      01000006H   BLOCK     CODE     ---       LVL=0
      01000006H   LINE      CODE     ---       #43
      01000006H   LINE      CODE     ---       #44
      01000006H   LINE      CODE     ---       #56
      01000009H   LINE      CODE     ---       #71
      0100000CH   LINE      CODE     ---       #87
      0100000FH   LINE      CODE     ---       #103
      01000012H   LINE      CODE     ---       #114
      ---         BLOCKEND  ---      ---       LVL=0

      0100073EH   BLOCK     CODE     ---       LVL=0
      0100073EH   LINE      CODE     ---       #117
      0100073EH   LINE      CODE     ---       #118
      0100073EH   LINE      CODE     ---       #124
      01000741H   LINE      CODE     ---       #136
      ---         BLOCKEND  ---      ---       LVL=0

      0100070EH   BLOCK     CODE     ---       LVL=0
      0100070EH   LINE      CODE     ---       #139
      0100070EH   LINE      CODE     ---       #140
      0100070EH   LINE      CODE     ---       #153
      01000711H   LINE      CODE     ---       #172
      01000714H   LINE      CODE     ---       #180
      ---         BLOCKEND  ---      ---       LVL=0

      01000460H   BLOCK     CODE     ---       LVL=0
      01000460H   BLOCK     CODE     NEAR LAB  LVL=1
      0000000CH   SYMBOL    DATA     DWORD     i
      00000020H.7 SYMBOL    BIT      BIT       ea
      ---         BLOCKEND  ---      ---       LVL=1
      01000460H   LINE      CODE     ---       #183
      01000460H   LINE      CODE     ---       #184
      01000460H   LINE      CODE     ---       #197
      01000463H   LINE      CODE     ---       #200
      01000480H   LINE      CODE     ---       #201
      01000480H   LINE      CODE     ---       #202
      01000481H   LINE      CODE     ---       #203
      01000498H   LINE      CODE     ---       #206
      0100049CH   LINE      CODE     ---       #207
      0100049EH   LINE      CODE     ---       #208
      010004A1H   LINE      CODE     ---       #209
      010004A4H   LINE      CODE     ---       #210
      010004A8H   LINE      CODE     ---       #213
      010004C5H   LINE      CODE     ---       #214
      010004C5H   LINE      CODE     ---       #215
      010004C6H   LINE      CODE     ---       #216
      010004DDH   LINE      CODE     ---       #219
      010004E0H   LINE      CODE     ---       #222
      010004E3H   LINE      CODE     ---       #226
      ---         BLOCKEND  ---      ---       LVL=0

      01000016H   BLOCK     CODE     ---       LVL=0
      01000016H   BLOCK     CODE     NEAR LAB  LVL=1
      00000007H   SYMBOL    DATA     BYTE      TMR2CN0_TR2_save
      ---         BLOCKEND  ---      ---       LVL=1
LX51 LINKER/LOCATER V4.66.97.0                                                        10/14/2021  10:03:14  PAGE 16


      01000016H   LINE      CODE     ---       #229
      01000016H   LINE      CODE     ---       #230
      01000016H   LINE      CODE     ---       #234
      0100001AH   LINE      CODE     ---       #236
      0100001DH   LINE      CODE     ---       #252
      01000020H   LINE      CODE     ---       #259
      01000023H   LINE      CODE     ---       #267
      01000025H   LINE      CODE     ---       #270
      ---         BLOCKEND  ---      ---       LVL=0

      01000056H   BLOCK     CODE     ---       LVL=0
      01000056H   LINE      CODE     ---       #273
      01000056H   LINE      CODE     ---       #274
      01000056H   LINE      CODE     ---       #282
      01000059H   LINE      CODE     ---       #292
      0100005CH   LINE      CODE     ---       #303
      0100005FH   LINE      CODE     ---       #314
      01000062H   LINE      CODE     ---       #324
      ---         BLOCKEND  ---      ---       LVL=0

      01000066H   BLOCK     CODE     ---       LVL=0
      01000066H   LINE      CODE     ---       #327
      01000066H   LINE      CODE     ---       #328
      01000066H   LINE      CODE     ---       #336
      01000069H   LINE      CODE     ---       #346
      0100006CH   LINE      CODE     ---       #376
      0100006FH   LINE      CODE     ---       #377
      01000072H   LINE      CODE     ---       #380
      ---         BLOCKEND  ---      ---       LVL=0

      010006B3H   BLOCK     CODE     ---       LVL=0
      010006B3H   BLOCK     CODE     NEAR LAB  LVL=1
      00000007H   SYMBOL    DATA     BYTE      TCON_save
      ---         BLOCKEND  ---      ---       LVL=1
      010006B3H   LINE      CODE     ---       #399
      010006B3H   LINE      CODE     ---       #400
      010006B3H   LINE      CODE     ---       #404
      010006B5H   LINE      CODE     ---       #406
      010006B8H   LINE      CODE     ---       #414
      010006BBH   LINE      CODE     ---       #421
      010006BEH   LINE      CODE     ---       #432
      010006C8H   LINE      CODE     ---       #436
      ---         BLOCKEND  ---      ---       LVL=0

      01000704H   BLOCK     CODE     ---       LVL=0
      01000704H   LINE      CODE     ---       #439
      01000704H   LINE      CODE     ---       #440
      01000704H   LINE      CODE     ---       #451
      01000707H   LINE      CODE     ---       #466
      0100070AH   LINE      CODE     ---       #475
      0100070DH   LINE      CODE     ---       #478
      ---         BLOCKEND  ---      ---       LVL=0

      01000683H   BLOCK     CODE     ---       LVL=0
      01000683H   BLOCK     CODE     NEAR LAB  LVL=1
      00000007H   SYMBOL    DATA     BYTE      delay
      ---         BLOCKEND  ---      ---       LVL=1
      01000683H   LINE      CODE     ---       #481
      01000683H   LINE      CODE     ---       #482
      01000683H   LINE      CODE     ---       #490
      01000686H   LINE      CODE     ---       #492
      01000695H   LINE      CODE     ---       #501
LX51 LINKER/LOCATER V4.66.97.0                                                        10/14/2021  10:03:14  PAGE 17


      01000698H   LINE      CODE     ---       #508
      0100069BH   LINE      CODE     ---       #511
      ---         BLOCKEND  ---      ---       LVL=0

      01000742H   BLOCK     CODE     ---       LVL=0
      01000742H   LINE      CODE     ---       #528
      01000742H   LINE      CODE     ---       #529
      01000742H   LINE      CODE     ---       #538
      01000745H   LINE      CODE     ---       #542
      ---         BLOCKEND  ---      ---       LVL=0

      010006C9H   BLOCK     CODE     ---       LVL=0
      010006C9H   BLOCK     CODE     NEAR LAB  LVL=1
      00000007H   SYMBOL    DATA     BYTE      TMR3CN0_TR3_save
      ---         BLOCKEND  ---      ---       LVL=1
      010006C9H   LINE      CODE     ---       #545
      010006C9H   LINE      CODE     ---       #546
      010006C9H   LINE      CODE     ---       #550
      010006CDH   LINE      CODE     ---       #552
      010006D0H   LINE      CODE     ---       #568
      010006D3H   LINE      CODE     ---       #575
      010006D6H   LINE      CODE     ---       #583
      010006D8H   LINE      CODE     ---       #586
      ---         BLOCKEND  ---      ---       LVL=0

      ---         MODULE    ---      ---       INTERRUPTS
      01000524H   PUBLIC    CODE     ---       TIMER3_ISR
      010005DCH   PUBLIC    CODE     ---       INT1_ISR
      0100059FH   PUBLIC    CODE     ---       INT0_ISR
      010004E4H   PUBLIC    CODE     ---       CMP0_ISR
      0100031AH   PUBLIC    CODE     ---       ADC0EOC_ISR
      01000562H   PUBLIC    CODE     ---       TIMER2_ISR
      000000A2H   SFRSYM    DATA     BYTE      SPI0CKR
      00000080H   SFRSYM    DATA     BYTE      P0
      000000D0H.2 SFRSYM    DATA     BIT       PSW_OV
      00000090H   SFRSYM    DATA     BYTE      P1
      00000097H   SFRSYM    DATA     BYTE      WDTCN
      000000A0H   SFRSYM    DATA     BYTE      P2
      000000BCH   SFRSYM    DATA     BYTE      ADC0CF
      000000C8H.0 SFRSYM    DATA     BIT       TMR2CN0_T2XCLK
      000000C0H.7 SFRSYM    DATA     BIT       SMB0CN0_MASTER
      000000F9H   SFRSYM    DATA     WORD      PCA0
      000000E6H   SFRSYM    DATA     BYTE      EIE1
      000000C0H.1 SFRSYM    DATA     BIT       SMB0CN0_ACK
      0000008FH   SFRSYM    DATA     BYTE      PSCTL
      000000E4H   SFRSYM    DATA     BYTE      IT01CF
      000000C0H.6 SFRSYM    DATA     BIT       SMB0CN0_TXMODE
      000000ADH   SFRSYM    DATA     BYTE      DERIVID
      000000A4H   SFRSYM    DATA     BYTE      P0MDOUT
      000000A5H   SFRSYM    DATA     BYTE      P1MDOUT
      000000E8H.5 SFRSYM    DATA     BIT       ADC0CN0_ADINT
      000000CBH   SFRSYM    DATA     BYTE      TMR2RLH
      000000A6H   SFRSYM    DATA     BYTE      P2MDOUT
      000000A8H   SFRSYM    DATA     BYTE      IE
      00000093H   SFRSYM    DATA     BYTE      TMR3RLH
      000000F3H   SFRSYM    DATA     BYTE      EIP1
      00000098H.2 SFRSYM    DATA     BIT       SCON0_RB8
      000000CAH   SFRSYM    DATA     BYTE      TMR2RLL
      000000FCH   SFRSYM    DATA     BYTE      PCA0CPH0
      00000092H   SFRSYM    DATA     BYTE      TMR3RLL
      000000EAH   SFRSYM    DATA     BYTE      PCA0CPH1
      00000098H.3 SFRSYM    DATA     BIT       SCON0_TB8
LX51 LINKER/LOCATER V4.66.97.0                                                        10/14/2021  10:03:14  PAGE 18


      000000F0H.0 SFRSYM    DATA     BIT       B_B0
      00000082H   SFRSYM    DATA     WORD      DP
      000000ECH   SFRSYM    DATA     BYTE      PCA0CPH2
      000000F0H.1 SFRSYM    DATA     BIT       B_B1
      000000C3H   SFRSYM    DATA     WORD      ADC0GT
      000000F0H.2 SFRSYM    DATA     BIT       B_B2
      000000FBH   SFRSYM    DATA     BYTE      PCA0CPL0
      000000F0H.3 SFRSYM    DATA     BIT       B_B3
      000000D9H   SFRSYM    DATA     BYTE      PCA0MD
      000000DAH   SFRSYM    DATA     BYTE      PCA0CPM0
      000000E9H   SFRSYM    DATA     BYTE      PCA0CPL1
      000000F0H.4 SFRSYM    DATA     BIT       B_B4
      000000DBH   SFRSYM    DATA     BYTE      PCA0CPM1
      000000EBH   SFRSYM    DATA     BYTE      PCA0CPL2
      000000F0H.5 SFRSYM    DATA     BIT       B_B5
      000000DCH   SFRSYM    DATA     BYTE      PCA0CPM2
      000000B8H   SFRSYM    DATA     BYTE      IP
      000000B9H   SFRSYM    DATA     BYTE      ADC0TK
      000000F0H.6 SFRSYM    DATA     BIT       B_B6
      000000C5H   SFRSYM    DATA     WORD      ADC0LT
      00000098H.5 SFRSYM    DATA     BIT       SCON0_MCE
      000000F0H.7 SFRSYM    DATA     BIT       B_B7
      000000E1H   SFRSYM    DATA     BYTE      XBR0
      000000C1H   SFRSYM    DATA     BYTE      SMB0CF
      000000E2H   SFRSYM    DATA     BYTE      XBR1
      000000C0H.5 SFRSYM    DATA     BIT       SMB0CN0_STA
      000000E3H   SFRSYM    DATA     BYTE      XBR2
      000000BBH   SFRSYM    DATA     BYTE      ADC0MX
      000000E0H.0 SFRSYM    DATA     BIT       ACC_ACC0
      000000D1H   SFRSYM    DATA     BYTE      REF0CN
      0000008EH   SFRSYM    DATA     BYTE      CKCON0
      000000E0H.1 SFRSYM    DATA     BIT       ACC_ACC1
      000000C9H   SFRSYM    DATA     BYTE      REG0CN
      000000DDH   SFRSYM    DATA     BYTE      CRC0IN
      000000C8H.2 SFRSYM    DATA     BIT       TMR2CN0_TR2
      000000E0H.2 SFRSYM    DATA     BIT       ACC_ACC2
      000000E0H.3 SFRSYM    DATA     BIT       ACC_ACC3
      00000081H   SFRSYM    DATA     BYTE      SP
      0000009DH   SFRSYM    DATA     BYTE      CMP0MD
      000000E0H.4 SFRSYM    DATA     BIT       ACC_ACC4
      000000B1H   SFRSYM    DATA     BYTE      LFO0CN
      000000ABH   SFRSYM    DATA     BYTE      CMP1MD
      000000D8H.0 SFRSYM    DATA     BIT       PCA0CN0_CCF0
      000000E0H.5 SFRSYM    DATA     BIT       ACC_ACC5
      000000D8H.1 SFRSYM    DATA     BIT       PCA0CN0_CCF1
      000000E0H.6 SFRSYM    DATA     BIT       ACC_ACC6
      000000CCH   SFRSYM    DATA     WORD      TMR2
      000000D8H.2 SFRSYM    DATA     BIT       PCA0CN0_CCF2
      000000E0H.7 SFRSYM    DATA     BIT       ACC_ACC7
      00000094H   SFRSYM    DATA     WORD      TMR3
      000000C0H.3 SFRSYM    DATA     BIT       SMB0CN0_ACKRQ
      000000FFH   SFRSYM    DATA     BYTE      VDM0CN
      000000F1H   SFRSYM    DATA     BYTE      P0MDIN
      00000098H.4 SFRSYM    DATA     BIT       SCON0_REN
      000000ACH   SFRSYM    DATA     BYTE      SMB0TC
      000000F2H   SFRSYM    DATA     BYTE      P1MDIN
      000000C0H.4 SFRSYM    DATA     BIT       SMB0CN0_STO
      000000FEH   SFRSYM    DATA     BYTE      P0MASK
      000000EEH   SFRSYM    DATA     BYTE      P1MASK
      000000D0H.3 SFRSYM    DATA     BIT       PSW_RS0
      000000D8H.7 SFRSYM    DATA     BIT       PCA0CN0_CF
      0000009EH   SFRSYM    DATA     BYTE      PCA0CENT
LX51 LINKER/LOCATER V4.66.97.0                                                        10/14/2021  10:03:14  PAGE 19


      000000F8H.4 SFRSYM    DATA     BIT       SPI0CN0_RXOVRN
      000000D0H.4 SFRSYM    DATA     BIT       PSW_RS1
      000000E8H.7 SFRSYM    DATA     BIT       ADC0CN0_ADEN
      00000089H   SFRSYM    DATA     BYTE      TMOD
      00000088H   SFRSYM    DATA     BYTE      TCON
      000000CFH   SFRSYM    DATA     BYTE      CRC0FLIP
      000000D0H.0 SFRSYM    DATA     BIT       PSW_PARITY
      000000A8H.4 SFRSYM    DATA     BIT       IE_ES0
      0000009FH   SFRSYM    DATA     BYTE      CMP0MX
      000000A8H.1 SFRSYM    DATA     BIT       IE_ET0
      000000AAH   SFRSYM    DATA     BYTE      CMP1MX
      000000A8H.3 SFRSYM    DATA     BIT       IE_ET1
      000000D4H   SFRSYM    DATA     BYTE      P0SKIP
      000000A8H.5 SFRSYM    DATA     BIT       IE_ET2
      000000D5H   SFRSYM    DATA     BYTE      P1SKIP
      000000E8H   SFRSYM    DATA     BYTE      ADC0CN0
      000000A8H.0 SFRSYM    DATA     BIT       IE_EX0
      000000B2H   SFRSYM    DATA     BYTE      ADC0CN1
      000000D8H.6 SFRSYM    DATA     BIT       PCA0CN0_CR
      000000A8H.2 SFRSYM    DATA     BIT       IE_EX1
      00000098H.7 SFRSYM    DATA     BIT       SCON0_SMODE
      000000B5H   SFRSYM    DATA     BYTE      DEVICEID
      000000A9H   SFRSYM    DATA     BYTE      CLKSEL
      000000F8H.0 SFRSYM    DATA     BIT       SPI0CN0_SPIEN
      000000F0H   SFRSYM    DATA     BYTE      B
      000000BEH   SFRSYM    DATA     BYTE      ADC0H
      000000D2H   SFRSYM    DATA     BYTE      CRC0AUTO
      000000E8H.6 SFRSYM    DATA     BIT       ADC0CN0_ADBMEN
      000000CAH   SFRSYM    DATA     WORD      TMR2RL
      000000BDH   SFRSYM    DATA     BYTE      ADC0L
      00000092H   SFRSYM    DATA     WORD      TMR3RL
      000000D8H   SFRSYM    DATA     BYTE      PCA0CN0
      000000E0H   SFRSYM    DATA     BYTE      ACC
      000000FBH   SFRSYM    DATA     WORD      PCA0CP0
      000000E9H   SFRSYM    DATA     WORD      PCA0CP1
      000000EBH   SFRSYM    DATA     WORD      PCA0CP2
      000000CEH   SFRSYM    DATA     BYTE      CRC0CN0
      0000008CH   SFRSYM    DATA     BYTE      TH0
      000000B8H.4 SFRSYM    DATA     BIT       IP_PS0
      0000008DH   SFRSYM    DATA     BYTE      TH1
      000000FAH   SFRSYM    DATA     BYTE      PCA0H
      000000B8H.1 SFRSYM    DATA     BIT       IP_PT0
      000000B8H.3 SFRSYM    DATA     BIT       IP_PT1
      000000C0H.2 SFRSYM    DATA     BIT       SMB0CN0_ARBLOST
      000000B8H.5 SFRSYM    DATA     BIT       IP_PT2
      0000008AH   SFRSYM    DATA     BYTE      TL0
      000000F8H.1 SFRSYM    DATA     BIT       SPI0CN0_TXBMT
      000000D0H.5 SFRSYM    DATA     BIT       PSW_F0
      000000A8H.6 SFRSYM    DATA     BIT       IE_ESPI0
      0000008BH   SFRSYM    DATA     BYTE      TL1
      000000F9H   SFRSYM    DATA     BYTE      PCA0L
      000000C0H.0 SFRSYM    DATA     BIT       SMB0CN0_SI
      000000D0H.1 SFRSYM    DATA     BIT       PSW_F1
      00000080H.0 SFRSYM    DATA     BIT       P0_B0
      000000B8H.0 SFRSYM    DATA     BIT       IP_PX0
      00000090H.0 SFRSYM    DATA     BIT       P1_B0
      00000080H.1 SFRSYM    DATA     BIT       P0_B1
      000000B8H.2 SFRSYM    DATA     BIT       IP_PX1
      0000009BH   SFRSYM    DATA     BYTE      CMP0CN0
      00000088H.1 SFRSYM    DATA     BIT       TCON_IE0
      000000A0H.0 SFRSYM    DATA     BIT       P2_B0
      00000090H.1 SFRSYM    DATA     BIT       P1_B1
LX51 LINKER/LOCATER V4.66.97.0                                                        10/14/2021  10:03:14  PAGE 20


      00000080H.2 SFRSYM    DATA     BIT       P0_B2
      000000BFH   SFRSYM    DATA     BYTE      CMP1CN0
      00000088H.3 SFRSYM    DATA     BIT       TCON_IE1
      000000A0H.1 SFRSYM    DATA     BIT       P2_B1
      00000090H.2 SFRSYM    DATA     BIT       P1_B2
      00000080H.3 SFRSYM    DATA     BIT       P0_B3
      000000C0H   SFRSYM    DATA     BYTE      SMB0CN0
      00000090H.3 SFRSYM    DATA     BIT       P1_B3
      00000080H.4 SFRSYM    DATA     BIT       P0_B4
      00000090H.4 SFRSYM    DATA     BIT       P1_B4
      00000080H.5 SFRSYM    DATA     BIT       P0_B5
      00000090H.5 SFRSYM    DATA     BIT       P1_B5
      00000080H.6 SFRSYM    DATA     BIT       P0_B6
      00000090H.6 SFRSYM    DATA     BIT       P1_B6
      00000080H.7 SFRSYM    DATA     BIT       P0_B7
      00000090H.7 SFRSYM    DATA     BIT       P1_B7
      00000083H   SFRSYM    DATA     BYTE      DPH
      000000C4H   SFRSYM    DATA     BYTE      ADC0GTH
      000000C8H.7 SFRSYM    DATA     BIT       TMR2CN0_TF2H
      000000C8H.3 SFRSYM    DATA     BIT       TMR2CN0_T2SPLIT
      000000D0H.6 SFRSYM    DATA     BIT       PSW_AC
      000000F8H   SFRSYM    DATA     BYTE      SPI0CN0
      000000C7H   SFRSYM    DATA     BYTE      HFO0CAL
      00000088H.5 SFRSYM    DATA     BIT       TCON_TF0
      00000098H.0 SFRSYM    DATA     BIT       SCON0_RI
      00000082H   SFRSYM    DATA     BYTE      DPL
      00000088H.7 SFRSYM    DATA     BIT       TCON_TF1
      00000099H   SFRSYM    DATA     BYTE      SBUF0
      00000087H   SFRSYM    DATA     BYTE      PCON0
      000000C3H   SFRSYM    DATA     BYTE      ADC0GTL
      000000C8H.6 SFRSYM    DATA     BIT       TMR2CN0_TF2L
      00000098H.1 SFRSYM    DATA     BIT       SCON0_TI
      000000E8H.0 SFRSYM    DATA     BIT       ADC0CN0_ADCM0
      000000C6H   SFRSYM    DATA     BYTE      ADC0LTH
      00000088H.0 SFRSYM    DATA     BIT       TCON_IT0
      000000E8H.1 SFRSYM    DATA     BIT       ADC0CN0_ADCM1
      000000EFH   SFRSYM    DATA     BYTE      RSTSRC
      000000FDH   SFRSYM    DATA     BYTE      P0MAT
      000000DEH   SFRSYM    DATA     BYTE      CRC0DAT
      00000088H.2 SFRSYM    DATA     BIT       TCON_IT1
      000000E8H.2 SFRSYM    DATA     BIT       ADC0CN0_ADCM2
      00000098H   SFRSYM    DATA     BYTE      SCON0
      000000F6H   SFRSYM    DATA     BYTE      PRTDRV
      000000EDH   SFRSYM    DATA     BYTE      P1MAT
      000000E8H.3 SFRSYM    DATA     BIT       ADC0CN0_ADWINT
      000000E8H.4 SFRSYM    DATA     BIT       ADC0CN0_ADBUSY
      000000D6H   SFRSYM    DATA     BYTE      SMB0ADM
      000000C5H   SFRSYM    DATA     BYTE      ADC0LTL
      000000F8H.5 SFRSYM    DATA     BIT       SPI0CN0_MODF
      000000B8H.6 SFRSYM    DATA     BIT       IP_PSPI0
      0000009CH   SFRSYM    DATA     BYTE      PCA0CLR
      000000C8H   SFRSYM    DATA     BYTE      TMR2CN0
      00000091H   SFRSYM    DATA     BYTE      TMR3CN0
      000000D7H   SFRSYM    DATA     BYTE      SMB0ADR
      00000088H.4 SFRSYM    DATA     BIT       TCON_TR0
      000000C8H.4 SFRSYM    DATA     BIT       TMR2CN0_TF2CEN
      00000088H.6 SFRSYM    DATA     BIT       TCON_TR1
      000000C2H   SFRSYM    DATA     BYTE      SMB0DAT
      000000CDH   SFRSYM    DATA     BYTE      TMR2H
      000000A1H   SFRSYM    DATA     BYTE      SPI0CFG
      00000095H   SFRSYM    DATA     BYTE      TMR3H
      000000D3H   SFRSYM    DATA     BYTE      CRC0CNT
LX51 LINKER/LOCATER V4.66.97.0                                                        10/14/2021  10:03:14  PAGE 21


      00000096H   SFRSYM    DATA     BYTE      PCA0POL
      000000CCH   SFRSYM    DATA     BYTE      TMR2L
      000000F8H.7 SFRSYM    DATA     BIT       SPI0CN0_SPIF
      00000094H   SFRSYM    DATA     BYTE      TMR3L
      000000DFH   SFRSYM    DATA     BYTE      ADC0PWR
      000000A8H.7 SFRSYM    DATA     BIT       IE_EA
      000000C8H.5 SFRSYM    DATA     BIT       TMR2CN0_TF2LEN
      000000F8H.6 SFRSYM    DATA     BIT       SPI0CN0_WCOL
      000000F8H.2 SFRSYM    DATA     BIT       SPI0CN0_NSSMD0
      000000D0H.7 SFRSYM    DATA     BIT       PSW_CY
      000000A3H   SFRSYM    DATA     BYTE      SPI0DAT
      000000F8H.3 SFRSYM    DATA     BIT       SPI0CN0_NSSMD1
      000000BDH   SFRSYM    DATA     WORD      ADC0
      000000D0H   SFRSYM    DATA     BYTE      PSW
      000000F7H   SFRSYM    DATA     BYTE      PCA0PWM
      000000B6H   SFRSYM    DATA     BYTE      REVID
      000000B7H   SFRSYM    DATA     BYTE      FLKEY
      000000B3H   SFRSYM    DATA     BYTE      ADC0AC

      01000562H   BLOCK     CODE     ---       LVL=0
      01000562H   LINE      CODE     ---       #22
      0100057FH   LINE      CODE     ---       #24
      01000581H   LINE      CODE     ---       #25
      01000584H   LINE      CODE     ---       #26
      ---         BLOCKEND  ---      ---       LVL=0

      0100031AH   BLOCK     CODE     ---       LVL=0
      01000337H   BLOCK     CODE     NEAR LAB  LVL=1
      00000010H   SYMBOL    DATA     DWORD     accumulator
      00000014H   SYMBOL    DATA     WORD      measurements
      00000008H   SYMBOL    DATA     DWORD     result
      00000004H   SYMBOL    DATA     DWORD     mv
      ---         BLOCKEND  ---      ---       LVL=1
      0100031AH   LINE      CODE     ---       #36
      01000337H   LINE      CODE     ---       #40
      01000343H   LINE      CODE     ---       #43
      01000345H   LINE      CODE     ---       #45
      01000360H   LINE      CODE     ---       #46
      01000368H   LINE      CODE     ---       #48
      0100036EH   LINE      CODE     ---       #49
      0100036EH   LINE      CODE     ---       #50
      01000373H   LINE      CODE     ---       #51
      0100038BH   LINE      CODE     ---       #52
      01000397H   LINE      CODE     ---       #54
      010003B3H   LINE      CODE     ---       #55
      010003B6H   LINE      CODE     ---       #56
      010003B6H   LINE      CODE     ---       #57
      ---         BLOCKEND  ---      ---       LVL=0

      010004E4H   BLOCK     CODE     ---       LVL=0
      010004E4H   LINE      CODE     ---       #68
      01000501H   LINE      CODE     ---       #70
      01000504H   LINE      CODE     ---       #71
      01000509H   LINE      CODE     ---       #72
      ---         BLOCKEND  ---      ---       LVL=0

      0100059FH   BLOCK     CODE     ---       LVL=0
      0100059FH   LINE      CODE     ---       #82
      010005BCH   LINE      CODE     ---       #84
      010005C1H   LINE      CODE     ---       #85
      ---         BLOCKEND  ---      ---       LVL=0

LX51 LINKER/LOCATER V4.66.97.0                                                        10/14/2021  10:03:14  PAGE 22


      010005DCH   BLOCK     CODE     ---       LVL=0
      010005DCH   LINE      CODE     ---       #95
      010005F9H   LINE      CODE     ---       #97
      010005FEH   LINE      CODE     ---       #98
      ---         BLOCKEND  ---      ---       LVL=0

      01000524H   BLOCK     CODE     ---       LVL=0
      01000524H   LINE      CODE     ---       #109
      01000541H   LINE      CODE     ---       #111
      01000544H   LINE      CODE     ---       #113
      01000547H   LINE      CODE     ---       #114
      ---         BLOCKEND  ---      ---       LVL=0

      ---         MODULE    ---      ---       LFMASSAGE_MAIN
      00000017H   PUBLIC    DATA     BYTE      mag
      00000016H   PUBLIC    DATA     BYTE      mode
      0100061DH   PUBLIC    CODE     ---       _Timer0_Delay
      010006E9H   PUBLIC    CODE     ---       beep
      010006D9H   PUBLIC    CODE     ---       enter_lowpower
      0100069CH   PUBLIC    CODE     ---       initialize
      01000076H   PUBLIC    CODE     ---       main
      01000052H   PUBLIC    CODE     ---       SiLabs_Startup
      000000A2H   SFRSYM    DATA     BYTE      SPI0CKR
      00000080H   SFRSYM    DATA     BYTE      P0
      000000D0H.2 SFRSYM    DATA     BIT       PSW_OV
      00000090H   SFRSYM    DATA     BYTE      P1
      00000097H   SFRSYM    DATA     BYTE      WDTCN
      000000A0H   SFRSYM    DATA     BYTE      P2
      000000BCH   SFRSYM    DATA     BYTE      ADC0CF
      000000C8H.0 SFRSYM    DATA     BIT       TMR2CN0_T2XCLK
      000000C0H.7 SFRSYM    DATA     BIT       SMB0CN0_MASTER
      000000F9H   SFRSYM    DATA     WORD      PCA0
      000000E6H   SFRSYM    DATA     BYTE      EIE1
      000000C0H.1 SFRSYM    DATA     BIT       SMB0CN0_ACK
      0000008FH   SFRSYM    DATA     BYTE      PSCTL
      000000E4H   SFRSYM    DATA     BYTE      IT01CF
      000000C0H.6 SFRSYM    DATA     BIT       SMB0CN0_TXMODE
      000000ADH   SFRSYM    DATA     BYTE      DERIVID
      000000A4H   SFRSYM    DATA     BYTE      P0MDOUT
      000000A5H   SFRSYM    DATA     BYTE      P1MDOUT
      000000E8H.5 SFRSYM    DATA     BIT       ADC0CN0_ADINT
      000000CBH   SFRSYM    DATA     BYTE      TMR2RLH
      000000A6H   SFRSYM    DATA     BYTE      P2MDOUT
      000000A8H   SFRSYM    DATA     BYTE      IE
      00000093H   SFRSYM    DATA     BYTE      TMR3RLH
      000000F3H   SFRSYM    DATA     BYTE      EIP1
      00000098H.2 SFRSYM    DATA     BIT       SCON0_RB8
      000000CAH   SFRSYM    DATA     BYTE      TMR2RLL
      000000FCH   SFRSYM    DATA     BYTE      PCA0CPH0
      00000092H   SFRSYM    DATA     BYTE      TMR3RLL
      000000EAH   SFRSYM    DATA     BYTE      PCA0CPH1
      00000098H.3 SFRSYM    DATA     BIT       SCON0_TB8
      000000F0H.0 SFRSYM    DATA     BIT       B_B0
      00000082H   SFRSYM    DATA     WORD      DP
      000000ECH   SFRSYM    DATA     BYTE      PCA0CPH2
      000000F0H.1 SFRSYM    DATA     BIT       B_B1
      000000C3H   SFRSYM    DATA     WORD      ADC0GT
      000000F0H.2 SFRSYM    DATA     BIT       B_B2
      000000FBH   SFRSYM    DATA     BYTE      PCA0CPL0
      000000F0H.3 SFRSYM    DATA     BIT       B_B3
      000000D9H   SFRSYM    DATA     BYTE      PCA0MD
      000000DAH   SFRSYM    DATA     BYTE      PCA0CPM0
LX51 LINKER/LOCATER V4.66.97.0                                                        10/14/2021  10:03:14  PAGE 23


      000000E9H   SFRSYM    DATA     BYTE      PCA0CPL1
      000000F0H.4 SFRSYM    DATA     BIT       B_B4
      000000DBH   SFRSYM    DATA     BYTE      PCA0CPM1
      000000EBH   SFRSYM    DATA     BYTE      PCA0CPL2
      000000F0H.5 SFRSYM    DATA     BIT       B_B5
      000000DCH   SFRSYM    DATA     BYTE      PCA0CPM2
      000000B8H   SFRSYM    DATA     BYTE      IP
      000000B9H   SFRSYM    DATA     BYTE      ADC0TK
      000000F0H.6 SFRSYM    DATA     BIT       B_B6
      000000C5H   SFRSYM    DATA     WORD      ADC0LT
      00000098H.5 SFRSYM    DATA     BIT       SCON0_MCE
      000000F0H.7 SFRSYM    DATA     BIT       B_B7
      000000E1H   SFRSYM    DATA     BYTE      XBR0
      000000C1H   SFRSYM    DATA     BYTE      SMB0CF
      000000E2H   SFRSYM    DATA     BYTE      XBR1
      000000C0H.5 SFRSYM    DATA     BIT       SMB0CN0_STA
      000000E3H   SFRSYM    DATA     BYTE      XBR2
      000000BBH   SFRSYM    DATA     BYTE      ADC0MX
      000000E0H.0 SFRSYM    DATA     BIT       ACC_ACC0
      000000D1H   SFRSYM    DATA     BYTE      REF0CN
      0000008EH   SFRSYM    DATA     BYTE      CKCON0
      000000E0H.1 SFRSYM    DATA     BIT       ACC_ACC1
      000000C9H   SFRSYM    DATA     BYTE      REG0CN
      000000DDH   SFRSYM    DATA     BYTE      CRC0IN
      000000C8H.2 SFRSYM    DATA     BIT       TMR2CN0_TR2
      000000E0H.2 SFRSYM    DATA     BIT       ACC_ACC2
      000000E0H.3 SFRSYM    DATA     BIT       ACC_ACC3
      00000081H   SFRSYM    DATA     BYTE      SP
      0000009DH   SFRSYM    DATA     BYTE      CMP0MD
      000000E0H.4 SFRSYM    DATA     BIT       ACC_ACC4
      000000B1H   SFRSYM    DATA     BYTE      LFO0CN
      000000ABH   SFRSYM    DATA     BYTE      CMP1MD
      000000D8H.0 SFRSYM    DATA     BIT       PCA0CN0_CCF0
      000000E0H.5 SFRSYM    DATA     BIT       ACC_ACC5
      000000D8H.1 SFRSYM    DATA     BIT       PCA0CN0_CCF1
      000000E0H.6 SFRSYM    DATA     BIT       ACC_ACC6
      000000CCH   SFRSYM    DATA     WORD      TMR2
      000000D8H.2 SFRSYM    DATA     BIT       PCA0CN0_CCF2
      000000E0H.7 SFRSYM    DATA     BIT       ACC_ACC7
      00000094H   SFRSYM    DATA     WORD      TMR3
      000000C0H.3 SFRSYM    DATA     BIT       SMB0CN0_ACKRQ
      000000FFH   SFRSYM    DATA     BYTE      VDM0CN
      000000F1H   SFRSYM    DATA     BYTE      P0MDIN
      00000098H.4 SFRSYM    DATA     BIT       SCON0_REN
      000000ACH   SFRSYM    DATA     BYTE      SMB0TC
      000000F2H   SFRSYM    DATA     BYTE      P1MDIN
      000000C0H.4 SFRSYM    DATA     BIT       SMB0CN0_STO
      000000FEH   SFRSYM    DATA     BYTE      P0MASK
      000000EEH   SFRSYM    DATA     BYTE      P1MASK
      000000D0H.3 SFRSYM    DATA     BIT       PSW_RS0
      000000D8H.7 SFRSYM    DATA     BIT       PCA0CN0_CF
      0000009EH   SFRSYM    DATA     BYTE      PCA0CENT
      000000F8H.4 SFRSYM    DATA     BIT       SPI0CN0_RXOVRN
      000000D0H.4 SFRSYM    DATA     BIT       PSW_RS1
      000000E8H.7 SFRSYM    DATA     BIT       ADC0CN0_ADEN
      00000089H   SFRSYM    DATA     BYTE      TMOD
      00000088H   SFRSYM    DATA     BYTE      TCON
      000000CFH   SFRSYM    DATA     BYTE      CRC0FLIP
      000000D0H.0 SFRSYM    DATA     BIT       PSW_PARITY
      000000A8H.4 SFRSYM    DATA     BIT       IE_ES0
      0000009FH   SFRSYM    DATA     BYTE      CMP0MX
      000000A8H.1 SFRSYM    DATA     BIT       IE_ET0
LX51 LINKER/LOCATER V4.66.97.0                                                        10/14/2021  10:03:14  PAGE 24


      000000AAH   SFRSYM    DATA     BYTE      CMP1MX
      000000A8H.3 SFRSYM    DATA     BIT       IE_ET1
      000000D4H   SFRSYM    DATA     BYTE      P0SKIP
      000000A8H.5 SFRSYM    DATA     BIT       IE_ET2
      000000D5H   SFRSYM    DATA     BYTE      P1SKIP
      000000E8H   SFRSYM    DATA     BYTE      ADC0CN0
      000000A8H.0 SFRSYM    DATA     BIT       IE_EX0
      000000B2H   SFRSYM    DATA     BYTE      ADC0CN1
      000000D8H.6 SFRSYM    DATA     BIT       PCA0CN0_CR
      000000A8H.2 SFRSYM    DATA     BIT       IE_EX1
      00000098H.7 SFRSYM    DATA     BIT       SCON0_SMODE
      000000B5H   SFRSYM    DATA     BYTE      DEVICEID
      000000A9H   SFRSYM    DATA     BYTE      CLKSEL
      000000F8H.0 SFRSYM    DATA     BIT       SPI0CN0_SPIEN
      000000F0H   SFRSYM    DATA     BYTE      B
      000000BEH   SFRSYM    DATA     BYTE      ADC0H
      000000D2H   SFRSYM    DATA     BYTE      CRC0AUTO
      000000E8H.6 SFRSYM    DATA     BIT       ADC0CN0_ADBMEN
      000000CAH   SFRSYM    DATA     WORD      TMR2RL
      000000BDH   SFRSYM    DATA     BYTE      ADC0L
      00000092H   SFRSYM    DATA     WORD      TMR3RL
      000000D8H   SFRSYM    DATA     BYTE      PCA0CN0
      000000E0H   SFRSYM    DATA     BYTE      ACC
      000000FBH   SFRSYM    DATA     WORD      PCA0CP0
      000000E9H   SFRSYM    DATA     WORD      PCA0CP1
      000000EBH   SFRSYM    DATA     WORD      PCA0CP2
      000000CEH   SFRSYM    DATA     BYTE      CRC0CN0
      0000008CH   SFRSYM    DATA     BYTE      TH0
      000000B8H.4 SFRSYM    DATA     BIT       IP_PS0
      0000008DH   SFRSYM    DATA     BYTE      TH1
      000000FAH   SFRSYM    DATA     BYTE      PCA0H
      000000B8H.1 SFRSYM    DATA     BIT       IP_PT0
      000000B8H.3 SFRSYM    DATA     BIT       IP_PT1
      000000C0H.2 SFRSYM    DATA     BIT       SMB0CN0_ARBLOST
      000000B8H.5 SFRSYM    DATA     BIT       IP_PT2
      0000008AH   SFRSYM    DATA     BYTE      TL0
      000000F8H.1 SFRSYM    DATA     BIT       SPI0CN0_TXBMT
      000000D0H.5 SFRSYM    DATA     BIT       PSW_F0
      000000A8H.6 SFRSYM    DATA     BIT       IE_ESPI0
      0000008BH   SFRSYM    DATA     BYTE      TL1
      000000F9H   SFRSYM    DATA     BYTE      PCA0L
      000000C0H.0 SFRSYM    DATA     BIT       SMB0CN0_SI
      000000D0H.1 SFRSYM    DATA     BIT       PSW_F1
      00000080H.0 SFRSYM    DATA     BIT       P0_B0
      000000B8H.0 SFRSYM    DATA     BIT       IP_PX0
      00000090H.0 SFRSYM    DATA     BIT       P1_B0
      00000080H.1 SFRSYM    DATA     BIT       P0_B1
      000000B8H.2 SFRSYM    DATA     BIT       IP_PX1
      0000009BH   SFRSYM    DATA     BYTE      CMP0CN0
      00000088H.1 SFRSYM    DATA     BIT       TCON_IE0
      000000A0H.0 SFRSYM    DATA     BIT       P2_B0
      00000090H.1 SFRSYM    DATA     BIT       P1_B1
      00000080H.2 SFRSYM    DATA     BIT       P0_B2
      000000BFH   SFRSYM    DATA     BYTE      CMP1CN0
      00000088H.3 SFRSYM    DATA     BIT       TCON_IE1
      000000A0H.1 SFRSYM    DATA     BIT       P2_B1
      00000090H.2 SFRSYM    DATA     BIT       P1_B2
      00000080H.3 SFRSYM    DATA     BIT       P0_B3
      000000C0H   SFRSYM    DATA     BYTE      SMB0CN0
      00000090H.3 SFRSYM    DATA     BIT       P1_B3
      00000080H.4 SFRSYM    DATA     BIT       P0_B4
      00000090H.4 SFRSYM    DATA     BIT       P1_B4
LX51 LINKER/LOCATER V4.66.97.0                                                        10/14/2021  10:03:14  PAGE 25


      00000080H.5 SFRSYM    DATA     BIT       P0_B5
      00000090H.5 SFRSYM    DATA     BIT       P1_B5
      00000080H.6 SFRSYM    DATA     BIT       P0_B6
      00000090H.6 SFRSYM    DATA     BIT       P1_B6
      00000080H.7 SFRSYM    DATA     BIT       P0_B7
      00000090H.7 SFRSYM    DATA     BIT       P1_B7
      00000083H   SFRSYM    DATA     BYTE      DPH
      000000C4H   SFRSYM    DATA     BYTE      ADC0GTH
      000000C8H.7 SFRSYM    DATA     BIT       TMR2CN0_TF2H
      000000C8H.3 SFRSYM    DATA     BIT       TMR2CN0_T2SPLIT
      000000D0H.6 SFRSYM    DATA     BIT       PSW_AC
      000000F8H   SFRSYM    DATA     BYTE      SPI0CN0
      000000C7H   SFRSYM    DATA     BYTE      HFO0CAL
      00000088H.5 SFRSYM    DATA     BIT       TCON_TF0
      00000098H.0 SFRSYM    DATA     BIT       SCON0_RI
      00000082H   SFRSYM    DATA     BYTE      DPL
      00000088H.7 SFRSYM    DATA     BIT       TCON_TF1
      00000099H   SFRSYM    DATA     BYTE      SBUF0
      00000087H   SFRSYM    DATA     BYTE      PCON0
      000000C3H   SFRSYM    DATA     BYTE      ADC0GTL
      000000C8H.6 SFRSYM    DATA     BIT       TMR2CN0_TF2L
      00000098H.1 SFRSYM    DATA     BIT       SCON0_TI
      000000E8H.0 SFRSYM    DATA     BIT       ADC0CN0_ADCM0
      000000C6H   SFRSYM    DATA     BYTE      ADC0LTH
      00000088H.0 SFRSYM    DATA     BIT       TCON_IT0
      000000E8H.1 SFRSYM    DATA     BIT       ADC0CN0_ADCM1
      000000EFH   SFRSYM    DATA     BYTE      RSTSRC
      000000FDH   SFRSYM    DATA     BYTE      P0MAT
      000000DEH   SFRSYM    DATA     BYTE      CRC0DAT
      00000088H.2 SFRSYM    DATA     BIT       TCON_IT1
      000000E8H.2 SFRSYM    DATA     BIT       ADC0CN0_ADCM2
      00000098H   SFRSYM    DATA     BYTE      SCON0
      000000F6H   SFRSYM    DATA     BYTE      PRTDRV
      000000EDH   SFRSYM    DATA     BYTE      P1MAT
      000000E8H.3 SFRSYM    DATA     BIT       ADC0CN0_ADWINT
      000000E8H.4 SFRSYM    DATA     BIT       ADC0CN0_ADBUSY
      000000D6H   SFRSYM    DATA     BYTE      SMB0ADM
      000000C5H   SFRSYM    DATA     BYTE      ADC0LTL
      000000F8H.5 SFRSYM    DATA     BIT       SPI0CN0_MODF
      000000B8H.6 SFRSYM    DATA     BIT       IP_PSPI0
      0000009CH   SFRSYM    DATA     BYTE      PCA0CLR
      000000C8H   SFRSYM    DATA     BYTE      TMR2CN0
      00000091H   SFRSYM    DATA     BYTE      TMR3CN0
      000000D7H   SFRSYM    DATA     BYTE      SMB0ADR
      00000088H.4 SFRSYM    DATA     BIT       TCON_TR0
      000000C8H.4 SFRSYM    DATA     BIT       TMR2CN0_TF2CEN
      00000088H.6 SFRSYM    DATA     BIT       TCON_TR1
      000000C2H   SFRSYM    DATA     BYTE      SMB0DAT
      000000CDH   SFRSYM    DATA     BYTE      TMR2H
      000000A1H   SFRSYM    DATA     BYTE      SPI0CFG
      00000095H   SFRSYM    DATA     BYTE      TMR3H
      000000D3H   SFRSYM    DATA     BYTE      CRC0CNT
      00000096H   SFRSYM    DATA     BYTE      PCA0POL
      000000CCH   SFRSYM    DATA     BYTE      TMR2L
      000000F8H.7 SFRSYM    DATA     BIT       SPI0CN0_SPIF
      00000094H   SFRSYM    DATA     BYTE      TMR3L
      000000DFH   SFRSYM    DATA     BYTE      ADC0PWR
      000000A8H.7 SFRSYM    DATA     BIT       IE_EA
      000000C8H.5 SFRSYM    DATA     BIT       TMR2CN0_TF2LEN
      000000F8H.6 SFRSYM    DATA     BIT       SPI0CN0_WCOL
      000000F8H.2 SFRSYM    DATA     BIT       SPI0CN0_NSSMD0
      000000D0H.7 SFRSYM    DATA     BIT       PSW_CY
LX51 LINKER/LOCATER V4.66.97.0                                                        10/14/2021  10:03:14  PAGE 26


      000000A3H   SFRSYM    DATA     BYTE      SPI0DAT
      000000F8H.3 SFRSYM    DATA     BIT       SPI0CN0_NSSMD1
      000000BDH   SFRSYM    DATA     WORD      ADC0
      000000D0H   SFRSYM    DATA     BYTE      PSW
      000000F7H   SFRSYM    DATA     BYTE      PCA0PWM
      000000B6H   SFRSYM    DATA     BYTE      REVID
      000000B7H   SFRSYM    DATA     BYTE      FLKEY
      000000B3H   SFRSYM    DATA     BYTE      ADC0AC
      00000018H   SYMBOL    DATA     DWORD     chrg_ref_mV

      01000052H   BLOCK     CODE     ---       LVL=0
      01000052H   LINE      CODE     ---       #54
      01000052H   LINE      CODE     ---       #55
      01000052H   LINE      CODE     ---       #58
      ---         BLOCKEND  ---      ---       LVL=0

      01000076H   BLOCK     CODE     ---       LVL=0
      01000076H   LINE      CODE     ---       #63
      01000076H   LINE      CODE     ---       #64
      01000076H   LINE      CODE     ---       #65
      01000079H   LINE      CODE     ---       #69
      0100007CH   LINE      CODE     ---       #70
      0100007FH   LINE      CODE     ---       #71
      0100007FH   LINE      CODE     ---       #73
      01000082H   LINE      CODE     ---       #76
      01000085H   LINE      CODE     ---       #78
      01000088H   LINE      CODE     ---       #79
      0100008AH   LINE      CODE     ---       #81
      0100008AH   LINE      CODE     ---       #82
      0100008AH   LINE      CODE     ---       #83
      0100008DH   LINE      CODE     ---       #86
      01000092H   LINE      CODE     ---       #87
      01000092H   LINE      CODE     ---       #88
      01000092H   LINE      CODE     ---       #89
      01000092H   LINE      CODE     ---       #90
      01000094H   LINE      CODE     ---       #91
      0100009BH   LINE      CODE     ---       #92
      0100009EH   LINE      CODE     ---       #93
      010000A5H   LINE      CODE     ---       #94
      010000A8H   LINE      CODE     ---       #95
      010000AAH   LINE      CODE     ---       #96
      010000B1H   LINE      CODE     ---       #97
      010000B1H   LINE      CODE     ---       #98
      010000B1H   LINE      CODE     ---       #99
      010000B1H   LINE      CODE     ---       #100
      010000B1H   LINE      CODE     ---       #101
      010000B1H   LINE      CODE     ---       #102
      010000B1H   LINE      CODE     ---       #104
      010000B6H   LINE      CODE     ---       #105
      010000BBH   LINE      CODE     ---       #106
      010000BEH   LINE      CODE     ---       #108
      010000C0H   LINE      CODE     ---       #109
      010000C8H   LINE      CODE     ---       #111
      010000D7H   LINE      CODE     ---       #112
      010000D7H   LINE      CODE     ---       #113
      010000DCH   LINE      CODE     ---       #114
      010000E1H   LINE      CODE     ---       #115
      010000E6H   LINE      CODE     ---       #116
      010000EBH   LINE      CODE     ---       #117
      010000EEH   LINE      CODE     ---       #118
      010000F1H   LINE      CODE     ---       #119
      010000F1H   LINE      CODE     ---       #120
LX51 LINKER/LOCATER V4.66.97.0                                                        10/14/2021  10:03:14  PAGE 27


      010000F6H   LINE      CODE     ---       #121
      010000F8H   LINE      CODE     ---       #122
      010000F8H   LINE      CODE     ---       #123
      010000F8H   LINE      CODE     ---       #124
      010000F8H   LINE      CODE     ---       #125
      010000FAH   LINE      CODE     ---       #126
      010000FAH   LINE      CODE     ---       #127
      010000FFH   LINE      CODE     ---       #128
      01000104H   LINE      CODE     ---       #129
      01000106H   LINE      CODE     ---       #130
      01000106H   LINE      CODE     ---       #131
      01000106H   LINE      CODE     ---       #132
      01000108H   LINE      CODE     ---       #133
      01000108H   LINE      CODE     ---       #134
      0100010DH   LINE      CODE     ---       #135
      01000112H   LINE      CODE     ---       #136
      01000117H   LINE      CODE     ---       #137
      0100011CH   LINE      CODE     ---       #138
      0100011FH   LINE      CODE     ---       #139
      0100011FH   LINE      CODE     ---       #140
      0100011FH   LINE      CODE     ---       #141
      0100011FH   LINE      CODE     ---       #142
      01000126H   LINE      CODE     ---       #143
      0100012BH   LINE      CODE     ---       #144
      0100012DH   LINE      CODE     ---       #145
      01000135H   LINE      CODE     ---       #146
      0100014AH   LINE      CODE     ---       #147
      01000152H   LINE      CODE     ---       #148
      0100015BH   LINE      CODE     ---       #149
      01000164H   LINE      CODE     ---       #150
      0100016DH   LINE      CODE     ---       #151
      01000176H   LINE      CODE     ---       #152
      01000181H   LINE      CODE     ---       #153
      01000181H   LINE      CODE     ---       #155
      01000184H   LINE      CODE     ---       #156
      0100018FH   LINE      CODE     ---       #157
      01000194H   LINE      CODE     ---       #158
      0100019AH   LINE      CODE     ---       #159
      010001AFH   LINE      CODE     ---       #160
      010001B7H   LINE      CODE     ---       #161
      010001C0H   LINE      CODE     ---       #162
      010001C9H   LINE      CODE     ---       #163
      010001D2H   LINE      CODE     ---       #164
      010001DBH   LINE      CODE     ---       #165
      010001E6H   LINE      CODE     ---       #166
      010001E6H   LINE      CODE     ---       #168
      010001E9H   LINE      CODE     ---       #169
      010001E9H   LINE      CODE     ---       #170
      ---         BLOCKEND  ---      ---       LVL=0

      0100069CH   BLOCK     CODE     ---       LVL=0
      0100069CH   LINE      CODE     ---       #173
      0100069CH   LINE      CODE     ---       #174
      0100069CH   LINE      CODE     ---       #175
      0100069FH   LINE      CODE     ---       #177
      010006A4H   LINE      CODE     ---       #178
      010006A9H   LINE      CODE     ---       #179
      010006AEH   LINE      CODE     ---       #180
      ---         BLOCKEND  ---      ---       LVL=0

      010006D9H   BLOCK     CODE     ---       LVL=0
      010006D9H   LINE      CODE     ---       #183
LX51 LINKER/LOCATER V4.66.97.0                                                        10/14/2021  10:03:14  PAGE 28


      010006D9H   LINE      CODE     ---       #184
      010006D9H   LINE      CODE     ---       #185
      010006DCH   LINE      CODE     ---       #186
      010006DEH   LINE      CODE     ---       #187
      010006E0H   LINE      CODE     ---       #188
      010006E2H   LINE      CODE     ---       #190
      010006E5H   LINE      CODE     ---       #194
      010006E8H   LINE      CODE     ---       #196
      ---         BLOCKEND  ---      ---       LVL=0

      010006E9H   BLOCK     CODE     ---       LVL=0
      010006E9H   LINE      CODE     ---       #198
      010006E9H   LINE      CODE     ---       #199
      010006E9H   LINE      CODE     ---       #200
      010006ECH   LINE      CODE     ---       #201
      010006F3H   LINE      CODE     ---       #202
      010006F6H   LINE      CODE     ---       #203
      ---         BLOCKEND  ---      ---       LVL=0

      01000619H   BLOCK     CODE     VOID      LVL=0
      ---         BLOCKEND  ---      ---       LVL=0

      0100061DH   BLOCK     CODE     ---       LVL=0
      00000006H   SYMBOL    DATA     WORD      ms
      00000004H   SYMBOL    DATA     WORD      i
      0100061DH   BLOCK     CODE     NEAR LAB  LVL=1
      00000004H   SYMBOL    DATA     WORD      i
      ---         BLOCKEND  ---      ---       LVL=1
      0100061DH   LINE      CODE     ---       #206
      0100061DH   LINE      CODE     ---       #207
      0100061DH   LINE      CODE     ---       #210
      01000627H   LINE      CODE     ---       #211
      01000627H   LINE      CODE     ---       #212
      0100062AH   LINE      CODE     ---       #213
      0100062DH   LINE      CODE     ---       #214
      01000630H   LINE      CODE     ---       #215
      01000633H   LINE      CODE     ---       #216
      01000636H   LINE      CODE     ---       #217
      01000639H   LINE      CODE     ---       #218
      0100063BH   LINE      CODE     ---       #219
      01000642H   LINE      CODE     ---       #220
      ---         BLOCKEND  ---      ---       LVL=0

      ---         MODULE    ---      ---       ?C_STARTUP
      01000000H   PUBLIC    CODE     NEAR LAB  ?C_STARTUP
      000000E0H   SFRSYM    DATA     BYTE      ACC
      000000F0H   SFRSYM    DATA     BYTE      B
      00000083H   SFRSYM    DATA     BYTE      DPH
      00000082H   SFRSYM    DATA     BYTE      DPL
      000000A0H   SFRSYM    DATA     BYTE      PPAGE_SFR
      00000081H   SFRSYM    DATA     BYTE      SP
      00000000H   SYMBOL    NUMBER   ---       IBPSTACK
      00000100H   SYMBOL    NUMBER   ---       IBPSTACKTOP
      00000080H   SYMBOL    NUMBER   ---       IDATALEN
      010003D7H   SYMBOL    CODE     NEAR LAB  IDATALOOP
      00000000H   SYMBOL    NUMBER   ---       PBPSTACK
      00000100H   SYMBOL    NUMBER   ---       PBPSTACKTOP
      00000000H   SYMBOL    NUMBER   ---       PDATALEN
      00000000H   SYMBOL    NUMBER   ---       PDATASTART
      00000000H   SYMBOL    NUMBER   ---       PPAGE
      00000000H   SYMBOL    NUMBER   ---       PPAGEENABLE
      010003D1H   SYMBOL    CODE     NEAR LAB  STARTUP1
LX51 LINKER/LOCATER V4.66.97.0                                                        10/14/2021  10:03:14  PAGE 29


      00000000H   SYMBOL    NUMBER   ---       XBPSTACK
      00010000H   SYMBOL    NUMBER   ---       XBPSTACKTOP
      00000000H   SYMBOL    NUMBER   ---       XDATALEN
      00000000H   SYMBOL    NUMBER   ---       XDATASTART

      01000000H   BLOCK     CODE     NEAR LAB  LVL=0
      01000000H   LINE      CODE     ---       #126
      ---         BLOCKEND  ---      ---       LVL=0

      010003D1H   BLOCK     CODE     NEAR LAB  LVL=0
      010003D1H   LINE      CODE     ---       #134
      010003D4H   LINE      CODE     ---       #138
      010003D6H   LINE      CODE     ---       #139
      010003D7H   LINE      CODE     ---       #140
      010003D8H   LINE      CODE     ---       #141
      010003DAH   LINE      CODE     ---       #190
      010003DDH   LINE      CODE     ---       #201
      ---         BLOCKEND  ---      ---       LVL=0

      ---         MODULE    ---      ---       DRIVER
      00000020H.3 PUBLIC    BIT      BIT       sensing
      00000020H.2 PUBLIC    BIT      BIT       btn_plus
      00000020H.1 PUBLIC    BIT      BIT       btn_minus
      00000020H.0 PUBLIC    BIT      BIT       btn_mode
      0000001CH   PUBLIC    DATA     DWORD     sens_mv
      010006F9H   PUBLIC    CODE     ---       _driver_updateSens
      01000643H   PUBLIC    CODE     ---       _pulseNeg
      01000715H   PUBLIC    CODE     ---       offSwitch
      01000755H   PUBLIC    CODE     ---       toggleSwitch
      01000752H   PUBLIC    CODE     ---       offBuzz
      0100074FH   PUBLIC    CODE     ---       toggleBuzz
      00000020H.7 PUBLIC    BIT      BIT       ?setIrLed?BIT
      0100072EH   PUBLIC    CODE     ---       setIrLed
      00000020H.7 PUBLIC    BIT      BIT       ?setLedBlu?BIT
      01000728H   PUBLIC    CODE     ---       setLedBlu
      00000020H.7 PUBLIC    BIT      BIT       ?setLedGrn?BIT
      01000722H   PUBLIC    CODE     ---       setLedGrn
      00000020H.7 PUBLIC    BIT      BIT       ?setLedRed?BIT
      0100071CH   PUBLIC    CODE     ---       setLedRed
      0100074CH   PUBLIC    CODE     ---       getBtnMinus
      01000749H   PUBLIC    CODE     ---       getBtnMode
      01000746H   PUBLIC    CODE     ---       getBtnPlus
      00000020H.7 PUBLIC    BIT      BIT       ?setBtnMinus?BIT
      01000739H   PUBLIC    CODE     ---       setBtnMinus
      00000020H.7 PUBLIC    BIT      BIT       ?setBtnMode?BIT
      01000734H   PUBLIC    CODE     ---       setBtnMode
      00000020H.7 PUBLIC    BIT      BIT       ?setBtnPlus?BIT
      01000026H   PUBLIC    CODE     ---       setBtnPlus
      000000A2H   SFRSYM    DATA     BYTE      SPI0CKR
      00000080H   SFRSYM    DATA     BYTE      P0
      000000D0H.2 SFRSYM    DATA     BIT       PSW_OV
      00000090H   SFRSYM    DATA     BYTE      P1
      00000097H   SFRSYM    DATA     BYTE      WDTCN
      000000A0H   SFRSYM    DATA     BYTE      P2
      000000BCH   SFRSYM    DATA     BYTE      ADC0CF
      000000C8H.0 SFRSYM    DATA     BIT       TMR2CN0_T2XCLK
      000000C0H.7 SFRSYM    DATA     BIT       SMB0CN0_MASTER
      000000F9H   SFRSYM    DATA     WORD      PCA0
      000000E6H   SFRSYM    DATA     BYTE      EIE1
      00000090H.0 SFRSYM    DATA     BIT       SWNEG
      000000C0H.1 SFRSYM    DATA     BIT       SMB0CN0_ACK
      0000008FH   SFRSYM    DATA     BYTE      PSCTL
LX51 LINKER/LOCATER V4.66.97.0                                                        10/14/2021  10:03:14  PAGE 30


      000000E4H   SFRSYM    DATA     BYTE      IT01CF
      000000C0H.6 SFRSYM    DATA     BIT       SMB0CN0_TXMODE
      000000ADH   SFRSYM    DATA     BYTE      DERIVID
      000000A4H   SFRSYM    DATA     BYTE      P0MDOUT
      000000A5H   SFRSYM    DATA     BYTE      P1MDOUT
      000000E8H.5 SFRSYM    DATA     BIT       ADC0CN0_ADINT
      000000CBH   SFRSYM    DATA     BYTE      TMR2RLH
      000000A6H   SFRSYM    DATA     BYTE      P2MDOUT
      000000A8H   SFRSYM    DATA     BYTE      IE
      00000093H   SFRSYM    DATA     BYTE      TMR3RLH
      000000F3H   SFRSYM    DATA     BYTE      EIP1
      00000098H.2 SFRSYM    DATA     BIT       SCON0_RB8
      000000CAH   SFRSYM    DATA     BYTE      TMR2RLL
      000000FCH   SFRSYM    DATA     BYTE      PCA0CPH0
      00000092H   SFRSYM    DATA     BYTE      TMR3RLL
      000000EAH   SFRSYM    DATA     BYTE      PCA0CPH1
      00000098H.3 SFRSYM    DATA     BIT       SCON0_TB8
      000000F0H.0 SFRSYM    DATA     BIT       B_B0
      00000082H   SFRSYM    DATA     WORD      DP
      000000ECH   SFRSYM    DATA     BYTE      PCA0CPH2
      000000F0H.1 SFRSYM    DATA     BIT       B_B1
      000000C3H   SFRSYM    DATA     WORD      ADC0GT
      000000F0H.2 SFRSYM    DATA     BIT       B_B2
      000000FBH   SFRSYM    DATA     BYTE      PCA0CPL0
      000000F0H.3 SFRSYM    DATA     BIT       B_B3
      000000D9H   SFRSYM    DATA     BYTE      PCA0MD
      000000DAH   SFRSYM    DATA     BYTE      PCA0CPM0
      000000E9H   SFRSYM    DATA     BYTE      PCA0CPL1
      00000080H.5 SFRSYM    DATA     BIT       LEDB
      000000F0H.4 SFRSYM    DATA     BIT       B_B4
      000000DBH   SFRSYM    DATA     BYTE      PCA0CPM1
      000000EBH   SFRSYM    DATA     BYTE      PCA0CPL2
      000000F0H.5 SFRSYM    DATA     BIT       B_B5
      000000DCH   SFRSYM    DATA     BYTE      PCA0CPM2
      000000B8H   SFRSYM    DATA     BYTE      IP
      000000B9H   SFRSYM    DATA     BYTE      ADC0TK
      000000F0H.6 SFRSYM    DATA     BIT       B_B6
      000000C5H   SFRSYM    DATA     WORD      ADC0LT
      00000098H.5 SFRSYM    DATA     BIT       SCON0_MCE
      000000F0H.7 SFRSYM    DATA     BIT       B_B7
      00000080H.4 SFRSYM    DATA     BIT       LEDG
      000000E1H   SFRSYM    DATA     BYTE      XBR0
      000000C1H   SFRSYM    DATA     BYTE      SMB0CF
      00000090H.1 SFRSYM    DATA     BIT       SWPOS
      000000E2H   SFRSYM    DATA     BYTE      XBR1
      000000C0H.5 SFRSYM    DATA     BIT       SMB0CN0_STA
      000000E3H   SFRSYM    DATA     BYTE      XBR2
      000000BBH   SFRSYM    DATA     BYTE      ADC0MX
      000000E0H.0 SFRSYM    DATA     BIT       ACC_ACC0
      000000D1H   SFRSYM    DATA     BYTE      REF0CN
      0000008EH   SFRSYM    DATA     BYTE      CKCON0
      000000E0H.1 SFRSYM    DATA     BIT       ACC_ACC1
      000000C9H   SFRSYM    DATA     BYTE      REG0CN
      000000DDH   SFRSYM    DATA     BYTE      CRC0IN
      000000C8H.2 SFRSYM    DATA     BIT       TMR2CN0_TR2
      000000E0H.2 SFRSYM    DATA     BIT       ACC_ACC2
      000000E0H.3 SFRSYM    DATA     BIT       ACC_ACC3
      00000081H   SFRSYM    DATA     BYTE      SP
      0000009DH   SFRSYM    DATA     BYTE      CMP0MD
      000000E0H.4 SFRSYM    DATA     BIT       ACC_ACC4
      000000B1H   SFRSYM    DATA     BYTE      LFO0CN
      000000ABH   SFRSYM    DATA     BYTE      CMP1MD
LX51 LINKER/LOCATER V4.66.97.0                                                        10/14/2021  10:03:14  PAGE 31


      000000D8H.0 SFRSYM    DATA     BIT       PCA0CN0_CCF0
      000000E0H.5 SFRSYM    DATA     BIT       ACC_ACC5
      000000D8H.1 SFRSYM    DATA     BIT       PCA0CN0_CCF1
      000000E0H.6 SFRSYM    DATA     BIT       ACC_ACC6
      000000CCH   SFRSYM    DATA     WORD      TMR2
      000000D8H.2 SFRSYM    DATA     BIT       PCA0CN0_CCF2
      000000E0H.7 SFRSYM    DATA     BIT       ACC_ACC7
      00000094H   SFRSYM    DATA     WORD      TMR3
      00000080H.3 SFRSYM    DATA     BIT       LEDR
      00000090H.2 SFRSYM    DATA     BIT       SW
      000000C0H.3 SFRSYM    DATA     BIT       SMB0CN0_ACKRQ
      000000FFH   SFRSYM    DATA     BYTE      VDM0CN
      000000F1H   SFRSYM    DATA     BYTE      P0MDIN
      00000098H.4 SFRSYM    DATA     BIT       SCON0_REN
      000000ACH   SFRSYM    DATA     BYTE      SMB0TC
      000000F2H   SFRSYM    DATA     BYTE      P1MDIN
      000000C0H.4 SFRSYM    DATA     BIT       SMB0CN0_STO
      000000FEH   SFRSYM    DATA     BYTE      P0MASK
      000000EEH   SFRSYM    DATA     BYTE      P1MASK
      000000D0H.3 SFRSYM    DATA     BIT       PSW_RS0
      000000D8H.7 SFRSYM    DATA     BIT       PCA0CN0_CF
      0000009EH   SFRSYM    DATA     BYTE      PCA0CENT
      000000F8H.4 SFRSYM    DATA     BIT       SPI0CN0_RXOVRN
      000000D0H.4 SFRSYM    DATA     BIT       PSW_RS1
      000000E8H.7 SFRSYM    DATA     BIT       ADC0CN0_ADEN
      00000089H   SFRSYM    DATA     BYTE      TMOD
      00000088H   SFRSYM    DATA     BYTE      TCON
      000000CFH   SFRSYM    DATA     BYTE      CRC0FLIP
      000000D0H.0 SFRSYM    DATA     BIT       PSW_PARITY
      000000A8H.4 SFRSYM    DATA     BIT       IE_ES0
      0000009FH   SFRSYM    DATA     BYTE      CMP0MX
      000000A8H.1 SFRSYM    DATA     BIT       IE_ET0
      000000AAH   SFRSYM    DATA     BYTE      CMP1MX
      000000A8H.3 SFRSYM    DATA     BIT       IE_ET1
      000000D4H   SFRSYM    DATA     BYTE      P0SKIP
      000000A8H.5 SFRSYM    DATA     BIT       IE_ET2
      000000D5H   SFRSYM    DATA     BYTE      P1SKIP
      000000E8H   SFRSYM    DATA     BYTE      ADC0CN0
      000000A8H.0 SFRSYM    DATA     BIT       IE_EX0
      000000B2H   SFRSYM    DATA     BYTE      ADC0CN1
      000000D8H.6 SFRSYM    DATA     BIT       PCA0CN0_CR
      000000A8H.2 SFRSYM    DATA     BIT       IE_EX1
      00000098H.7 SFRSYM    DATA     BIT       SCON0_SMODE
      000000B5H   SFRSYM    DATA     BYTE      DEVICEID
      000000A9H   SFRSYM    DATA     BYTE      CLKSEL
      000000F8H.0 SFRSYM    DATA     BIT       SPI0CN0_SPIEN
      000000F0H   SFRSYM    DATA     BYTE      B
      000000BEH   SFRSYM    DATA     BYTE      ADC0H
      000000D2H   SFRSYM    DATA     BYTE      CRC0AUTO
      000000E8H.6 SFRSYM    DATA     BIT       ADC0CN0_ADBMEN
      000000CAH   SFRSYM    DATA     WORD      TMR2RL
      000000BDH   SFRSYM    DATA     BYTE      ADC0L
      00000092H   SFRSYM    DATA     WORD      TMR3RL
      000000D8H   SFRSYM    DATA     BYTE      PCA0CN0
      000000E0H   SFRSYM    DATA     BYTE      ACC
      000000FBH   SFRSYM    DATA     WORD      PCA0CP0
      000000E9H   SFRSYM    DATA     WORD      PCA0CP1
      000000EBH   SFRSYM    DATA     WORD      PCA0CP2
      000000CEH   SFRSYM    DATA     BYTE      CRC0CN0
      00000080H.7 SFRSYM    DATA     BIT       BUZZ
      0000008CH   SFRSYM    DATA     BYTE      TH0
      000000B8H.4 SFRSYM    DATA     BIT       IP_PS0
LX51 LINKER/LOCATER V4.66.97.0                                                        10/14/2021  10:03:14  PAGE 32


      0000008DH   SFRSYM    DATA     BYTE      TH1
      000000FAH   SFRSYM    DATA     BYTE      PCA0H
      000000B8H.1 SFRSYM    DATA     BIT       IP_PT0
      000000B8H.3 SFRSYM    DATA     BIT       IP_PT1
      000000C0H.2 SFRSYM    DATA     BIT       SMB0CN0_ARBLOST
      000000B8H.5 SFRSYM    DATA     BIT       IP_PT2
      0000008AH   SFRSYM    DATA     BYTE      TL0
      000000F8H.1 SFRSYM    DATA     BIT       SPI0CN0_TXBMT
      000000D0H.5 SFRSYM    DATA     BIT       PSW_F0
      000000A8H.6 SFRSYM    DATA     BIT       IE_ESPI0
      0000008BH   SFRSYM    DATA     BYTE      TL1
      000000F9H   SFRSYM    DATA     BYTE      PCA0L
      000000C0H.0 SFRSYM    DATA     BIT       SMB0CN0_SI
      000000D0H.1 SFRSYM    DATA     BIT       PSW_F1
      00000080H.0 SFRSYM    DATA     BIT       P0_B0
      000000B8H.0 SFRSYM    DATA     BIT       IP_PX0
      00000090H.0 SFRSYM    DATA     BIT       P1_B0
      00000080H.1 SFRSYM    DATA     BIT       P0_B1
      000000B8H.2 SFRSYM    DATA     BIT       IP_PX1
      0000009BH   SFRSYM    DATA     BYTE      CMP0CN0
      00000088H.1 SFRSYM    DATA     BIT       TCON_IE0
      000000A0H.0 SFRSYM    DATA     BIT       P2_B0
      00000090H.1 SFRSYM    DATA     BIT       P1_B1
      00000080H.2 SFRSYM    DATA     BIT       P0_B2
      000000BFH   SFRSYM    DATA     BYTE      CMP1CN0
      00000088H.3 SFRSYM    DATA     BIT       TCON_IE1
      000000A0H.1 SFRSYM    DATA     BIT       P2_B1
      00000090H.2 SFRSYM    DATA     BIT       P1_B2
      00000080H.3 SFRSYM    DATA     BIT       P0_B3
      000000C0H   SFRSYM    DATA     BYTE      SMB0CN0
      00000090H.3 SFRSYM    DATA     BIT       P1_B3
      00000080H.4 SFRSYM    DATA     BIT       P0_B4
      00000090H.4 SFRSYM    DATA     BIT       P1_B4
      00000080H.5 SFRSYM    DATA     BIT       P0_B5
      00000090H.5 SFRSYM    DATA     BIT       P1_B5
      00000080H.6 SFRSYM    DATA     BIT       P0_B6
      00000090H.6 SFRSYM    DATA     BIT       P1_B6
      00000080H.7 SFRSYM    DATA     BIT       P0_B7
      00000090H.7 SFRSYM    DATA     BIT       P1_B7
      00000083H   SFRSYM    DATA     BYTE      DPH
      000000C4H   SFRSYM    DATA     BYTE      ADC0GTH
      000000C8H.7 SFRSYM    DATA     BIT       TMR2CN0_TF2H
      000000C8H.3 SFRSYM    DATA     BIT       TMR2CN0_T2SPLIT
      000000D0H.6 SFRSYM    DATA     BIT       PSW_AC
      000000F8H   SFRSYM    DATA     BYTE      SPI0CN0
      000000C7H   SFRSYM    DATA     BYTE      HFO0CAL
      00000088H.5 SFRSYM    DATA     BIT       TCON_TF0
      00000098H.0 SFRSYM    DATA     BIT       SCON0_RI
      00000082H   SFRSYM    DATA     BYTE      DPL
      00000088H.7 SFRSYM    DATA     BIT       TCON_TF1
      00000099H   SFRSYM    DATA     BYTE      SBUF0
      00000087H   SFRSYM    DATA     BYTE      PCON0
      000000C3H   SFRSYM    DATA     BYTE      ADC0GTL
      000000C8H.6 SFRSYM    DATA     BIT       TMR2CN0_TF2L
      00000098H.1 SFRSYM    DATA     BIT       SCON0_TI
      000000E8H.0 SFRSYM    DATA     BIT       ADC0CN0_ADCM0
      000000C6H   SFRSYM    DATA     BYTE      ADC0LTH
      00000088H.0 SFRSYM    DATA     BIT       TCON_IT0
      000000E8H.1 SFRSYM    DATA     BIT       ADC0CN0_ADCM1
      000000EFH   SFRSYM    DATA     BYTE      RSTSRC
      000000FDH   SFRSYM    DATA     BYTE      P0MAT
      000000DEH   SFRSYM    DATA     BYTE      CRC0DAT
LX51 LINKER/LOCATER V4.66.97.0                                                        10/14/2021  10:03:14  PAGE 33


      00000088H.2 SFRSYM    DATA     BIT       TCON_IT1
      000000E8H.2 SFRSYM    DATA     BIT       ADC0CN0_ADCM2
      00000098H   SFRSYM    DATA     BYTE      SCON0
      000000F6H   SFRSYM    DATA     BYTE      PRTDRV
      000000EDH   SFRSYM    DATA     BYTE      P1MAT
      000000E8H.3 SFRSYM    DATA     BIT       ADC0CN0_ADWINT
      000000E8H.4 SFRSYM    DATA     BIT       ADC0CN0_ADBUSY
      000000D6H   SFRSYM    DATA     BYTE      SMB0ADM
      000000C5H   SFRSYM    DATA     BYTE      ADC0LTL
      000000F8H.5 SFRSYM    DATA     BIT       SPI0CN0_MODF
      000000B8H.6 SFRSYM    DATA     BIT       IP_PSPI0
      0000009CH   SFRSYM    DATA     BYTE      PCA0CLR
      000000C8H   SFRSYM    DATA     BYTE      TMR2CN0
      00000091H   SFRSYM    DATA     BYTE      TMR3CN0
      000000D7H   SFRSYM    DATA     BYTE      SMB0ADR
      00000088H.4 SFRSYM    DATA     BIT       TCON_TR0
      000000C8H.4 SFRSYM    DATA     BIT       TMR2CN0_TF2CEN
      00000088H.6 SFRSYM    DATA     BIT       TCON_TR1
      000000C2H   SFRSYM    DATA     BYTE      SMB0DAT
      000000CDH   SFRSYM    DATA     BYTE      TMR2H
      000000A1H   SFRSYM    DATA     BYTE      SPI0CFG
      00000095H   SFRSYM    DATA     BYTE      TMR3H
      000000D3H   SFRSYM    DATA     BYTE      CRC0CNT
      00000080H.6 SFRSYM    DATA     BIT       IRLED
      00000096H   SFRSYM    DATA     BYTE      PCA0POL
      000000CCH   SFRSYM    DATA     BYTE      TMR2L
      000000F8H.7 SFRSYM    DATA     BIT       SPI0CN0_SPIF
      00000094H   SFRSYM    DATA     BYTE      TMR3L
      000000DFH   SFRSYM    DATA     BYTE      ADC0PWR
      000000A8H.7 SFRSYM    DATA     BIT       IE_EA
      000000C8H.5 SFRSYM    DATA     BIT       TMR2CN0_TF2LEN
      000000F8H.6 SFRSYM    DATA     BIT       SPI0CN0_WCOL
      000000F8H.2 SFRSYM    DATA     BIT       SPI0CN0_NSSMD0
      000000D0H.7 SFRSYM    DATA     BIT       PSW_CY
      000000A3H   SFRSYM    DATA     BYTE      SPI0DAT
      000000F8H.3 SFRSYM    DATA     BIT       SPI0CN0_NSSMD1
      000000BDH   SFRSYM    DATA     WORD      ADC0
      000000D0H   SFRSYM    DATA     BYTE      PSW
      000000F7H   SFRSYM    DATA     BYTE      PCA0PWM
      000000B6H   SFRSYM    DATA     BYTE      REVID
      000000B7H   SFRSYM    DATA     BYTE      FLKEY
      000000B3H   SFRSYM    DATA     BYTE      ADC0AC

      01000026H   BLOCK     CODE     ---       LVL=0
      00000020H.7 SYMBOL    BIT      BIT       pressed
      01000026H   LINE      CODE     ---       #26
      01000026H   LINE      CODE     ---       #27
      01000026H   LINE      CODE     ---       #28
      0100002AH   LINE      CODE     ---       #29
      ---         BLOCKEND  ---      ---       LVL=0

      01000734H   BLOCK     CODE     ---       LVL=0
      00000020H.7 SYMBOL    BIT      BIT       pressed
      01000734H   LINE      CODE     ---       #31
      01000734H   LINE      CODE     ---       #32
      01000734H   LINE      CODE     ---       #33
      01000738H   LINE      CODE     ---       #34
      ---         BLOCKEND  ---      ---       LVL=0

      01000739H   BLOCK     CODE     ---       LVL=0
      00000020H.7 SYMBOL    BIT      BIT       pressed
      01000739H   LINE      CODE     ---       #36
LX51 LINKER/LOCATER V4.66.97.0                                                        10/14/2021  10:03:14  PAGE 34


      01000739H   LINE      CODE     ---       #37
      01000739H   LINE      CODE     ---       #38
      0100073DH   LINE      CODE     ---       #39
      ---         BLOCKEND  ---      ---       LVL=0

      01000746H   BLOCK     CODE     ---       LVL=0
      01000746H   LINE      CODE     ---       #41
      01000746H   LINE      CODE     ---       #42
      01000746H   LINE      CODE     ---       #43
      01000748H   LINE      CODE     ---       #44
      ---         BLOCKEND  ---      ---       LVL=0

      01000749H   BLOCK     CODE     ---       LVL=0
      01000749H   LINE      CODE     ---       #46
      01000749H   LINE      CODE     ---       #47
      01000749H   LINE      CODE     ---       #48
      0100074BH   LINE      CODE     ---       #49
      ---         BLOCKEND  ---      ---       LVL=0

      0100074CH   BLOCK     CODE     ---       LVL=0
      0100074CH   LINE      CODE     ---       #51
      0100074CH   LINE      CODE     ---       #52
      0100074CH   LINE      CODE     ---       #53
      0100074EH   LINE      CODE     ---       #54
      ---         BLOCKEND  ---      ---       LVL=0

      0100071CH   BLOCK     CODE     ---       LVL=0
      00000020H.7 SYMBOL    BIT      BIT       on
      0100071CH   LINE      CODE     ---       #56
      0100071CH   LINE      CODE     ---       #57
      0100071CH   LINE      CODE     ---       #58
      01000721H   LINE      CODE     ---       #59
      ---         BLOCKEND  ---      ---       LVL=0

      01000722H   BLOCK     CODE     ---       LVL=0
      00000020H.7 SYMBOL    BIT      BIT       on
      01000722H   LINE      CODE     ---       #61
      01000722H   LINE      CODE     ---       #62
      01000722H   LINE      CODE     ---       #63
      01000727H   LINE      CODE     ---       #64
      ---         BLOCKEND  ---      ---       LVL=0

      01000728H   BLOCK     CODE     ---       LVL=0
      00000020H.7 SYMBOL    BIT      BIT       on
      01000728H   LINE      CODE     ---       #66
      01000728H   LINE      CODE     ---       #67
      01000728H   LINE      CODE     ---       #68
      0100072DH   LINE      CODE     ---       #69
      ---         BLOCKEND  ---      ---       LVL=0

      0100072EH   BLOCK     CODE     ---       LVL=0
      00000020H.7 SYMBOL    BIT      BIT       on
      0100072EH   LINE      CODE     ---       #71
      0100072EH   LINE      CODE     ---       #72
      0100072EH   LINE      CODE     ---       #73
      01000733H   LINE      CODE     ---       #74
      ---         BLOCKEND  ---      ---       LVL=0

      0100074FH   BLOCK     CODE     ---       LVL=0
      0100074FH   LINE      CODE     ---       #76
      0100074FH   LINE      CODE     ---       #77
      0100074FH   LINE      CODE     ---       #78
LX51 LINKER/LOCATER V4.66.97.0                                                        10/14/2021  10:03:14  PAGE 35


      01000751H   LINE      CODE     ---       #79
      ---         BLOCKEND  ---      ---       LVL=0

      01000752H   BLOCK     CODE     ---       LVL=0
      01000752H   LINE      CODE     ---       #81
      01000752H   LINE      CODE     ---       #82
      01000752H   LINE      CODE     ---       #83
      01000754H   LINE      CODE     ---       #84
      ---         BLOCKEND  ---      ---       LVL=0

      01000755H   BLOCK     CODE     ---       LVL=0
      01000755H   LINE      CODE     ---       #86
      01000755H   LINE      CODE     ---       #87
      01000755H   LINE      CODE     ---       #88
      01000757H   LINE      CODE     ---       #89
      ---         BLOCKEND  ---      ---       LVL=0

      01000715H   BLOCK     CODE     ---       LVL=0
      01000715H   LINE      CODE     ---       #91
      01000715H   LINE      CODE     ---       #92
      01000715H   LINE      CODE     ---       #93
      01000717H   LINE      CODE     ---       #94
      01000719H   LINE      CODE     ---       #95
      0100071BH   LINE      CODE     ---       #96
      ---         BLOCKEND  ---      ---       LVL=0

      01000643H   BLOCK     CODE     ---       LVL=0
      00000006H   SYMBOL    DATA     INT       width
      01000643H   BLOCK     CODE     NEAR LAB  LVL=1
      00000004H   SYMBOL    DATA     INT       i
      ---         BLOCKEND  ---      ---       LVL=1
      01000643H   LINE      CODE     ---       #98
      01000643H   LINE      CODE     ---       #99
      01000643H   LINE      CODE     ---       #101
      01000645H   LINE      CODE     ---       #102
      01000647H   LINE      CODE     ---       #103
      01000657H   LINE      CODE     ---       #104
      01000658H   LINE      CODE     ---       #105
      0100065FH   LINE      CODE     ---       #106
      01000661H   LINE      CODE     ---       #107
      01000663H   LINE      CODE     ---       #108
      ---         BLOCKEND  ---      ---       LVL=0
      00000006H   SYMBOL    DATA     INT       width
      00000004H   SYMBOL    DATA     INT       i

      010006F9H   BLOCK     CODE     ---       LVL=0
      00000004H   SYMBOL    DATA     DWORD     mV
      010006F9H   LINE      CODE     ---       #139
      010006F9H   LINE      CODE     ---       #140
      010006F9H   LINE      CODE     ---       #141
      01000701H   LINE      CODE     ---       #142
      01000703H   LINE      CODE     ---       #143
      ---         BLOCKEND  ---      ---       LVL=0

      ---         MODULE    ---      ---       ?C_INIT
      0100041BH   PUBLIC    CODE     ---       ?C_START

      ---         MODULE    ---      ---       ?C?LMUL
      010001ECH   PUBLIC    CODE     ---       ?C?LMUL

      ---         MODULE    ---      ---       ?C?ULDIV
      01000277H   PUBLIC    CODE     ---       ?C?ULDIV
LX51 LINKER/LOCATER V4.66.97.0                                                        10/14/2021  10:03:14  PAGE 36



      ---         MODULE    ---      ---       ?C?ULCMP
      01000309H   PUBLIC    CODE     ---       ?C?ULCMP



*** WARNING L15: MULTIPLE CALL TO FUNCTION
    NAME:    SETBTNMODE/DRIVER
    CALLER1: CMP0_ISR/INTERRUPTS
    CALLER2: ?C_C51STARTUP

*** WARNING L15: MULTIPLE CALL TO FUNCTION
    NAME:    SETBTNPLUS/DRIVER
    CALLER1: INT1_ISR/INTERRUPTS
    CALLER2: ?C_C51STARTUP

*** WARNING L15: MULTIPLE CALL TO FUNCTION
    NAME:    SETBTNMINUS/DRIVER
    CALLER1: INT0_ISR/INTERRUPTS
    CALLER2: ?C_C51STARTUP

Program Size: data=34.0 xdata=0 const=0 code=1880
LX51 RUN COMPLETE.  3 WARNING(S),  0 ERROR(S)
